################################################################################
#                                                                              #
#      IAR Universal Linker V6.6.1.103                                         #
#                                                                              #
#           Link time     =  15/Jun/2021  10:34:59                             #
#           Target CPU    =  A90                                               #
#           List file     =  "C:\Users\troub\CloudStation\Github\GitHub_DST\1. #
#                             Remove Smoke System\4. MIDO\DST-MIDO-ALMDDS-JST_ #
#                            v1.4_3224\Debug\List\MIDO-ALMDDS-JST_v1_4.map"    #
#           Output file 1 =  "C:\Users\troub\CloudStation\Github\GitHub_DST\1. #
#                             Remove Smoke System\4. MIDO\DST-MIDO-ALMDDS-JST_ #
#                            v1.4_3224\Debug\Exe\MIDO-ALMDDS-JST_v1_4.hex"     #
#                            Format: intel-extended                            #
#           Command line  =  -f C:\Users\troub\AppData\Local\Temp\EWECA4.tmp   #
#                            ("C:\Users\troub\CloudStation\Github\GitHub_DST\1 #
#                            . Remove Smoke System\4. MIDO\DST-MIDO-ALMDDS-JST #
#                            _v1.4_3224\Debug\Obj\adc.r90"                     #
#                            "C:\Users\troub\CloudStation\Github\GitHub_DST\1. #
#                             Remove Smoke System\4. MIDO\DST-MIDO-ALMDDS-JST_ #
#                            v1.4_3224\Debug\Obj\alarm.r90"                    #
#                            "C:\Users\troub\CloudStation\Github\GitHub_DST\1. #
#                             Remove Smoke System\4. MIDO\DST-MIDO-ALMDDS-JST_ #
#                            v1.4_3224\Debug\Obj\avr_gpio_driver.r90"          #
#                            "C:\Users\troub\CloudStation\Github\GitHub_DST\1. #
#                             Remove Smoke System\4. MIDO\DST-MIDO-ALMDDS-JST_ #
#                            v1.4_3224\Debug\Obj\avr_twi_master_driver.r90"    #
#                            "C:\Users\troub\CloudStation\Github\GitHub_DST\1. #
#                             Remove Smoke System\4. MIDO\DST-MIDO-ALMDDS-JST_ #
#                            v1.4_3224\Debug\Obj\fnd_display.r90"              #
#                            "C:\Users\troub\CloudStation\Github\GitHub_DST\1. #
#                             Remove Smoke System\4. MIDO\DST-MIDO-ALMDDS-JST_ #
#                            v1.4_3224\Debug\Obj\main.r90"                     #
#                            "C:\Users\troub\CloudStation\Github\GitHub_DST\1. #
#                             Remove Smoke System\4. MIDO\DST-MIDO-ALMDDS-JST_ #
#                            v1.4_3224\Debug\Obj\module_initialize.r90"        #
#                            "C:\Users\troub\CloudStation\Github\GitHub_DST\1. #
#                             Remove Smoke System\4. MIDO\DST-MIDO-ALMDDS-JST_ #
#                            v1.4_3224\Debug\Obj\motor.r90"                    #
#                            "C:\Users\troub\CloudStation\Github\GitHub_DST\1. #
#                             Remove Smoke System\4. MIDO\DST-MIDO-ALMDDS-JST_ #
#                            v1.4_3224\Debug\Obj\ps-33d.r90"                   #
#                            "C:\Users\troub\CloudStation\Github\GitHub_DST\1. #
#                             Remove Smoke System\4. MIDO\DST-MIDO-ALMDDS-JST_ #
#                            v1.4_3224\Debug\Obj\switch.r90"                   #
#                            "C:\Users\troub\CloudStation\Github\GitHub_DST\1. #
#                             Remove Smoke System\4. MIDO\DST-MIDO-ALMDDS-JST_ #
#                            v1.4_3224\Debug\Obj\system_mode.r90"              #
#                            "C:\Users\troub\CloudStation\Github\GitHub_DST\1. #
#                             Remove Smoke System\4. MIDO\DST-MIDO-ALMDDS-JST_ #
#                            v1.4_3224\Debug\Obj\type_conversion_util.r90"     #
#                            "C:\Users\troub\CloudStation\Github\GitHub_DST\1. #
#                             Remove Smoke System\4. MIDO\DST-MIDO-ALMDDS-JST_ #
#                            v1.4_3224\Debug\Obj\usart.r90"                    #
#                            -o                                                #
#                            "C:\Users\troub\CloudStation\Github\GitHub_DST\1. #
#                             Remove Smoke System\4. MIDO\DST-MIDO-ALMDDS-JST_ #
#                            v1.4_3224\Debug\Exe\MIDO-ALMDDS-JST_v1_4.hex"     #
#                            -Fintel-extended -l                               #
#                            "C:\Users\troub\CloudStation\Github\GitHub_DST\1. #
#                             Remove Smoke System\4. MIDO\DST-MIDO-ALMDDS-JST_ #
#                            v1.4_3224\Debug\List\MIDO-ALMDDS-JST_v1_4.map"    #
#                            -xmsni                                            #
#                            "-IC:\Program Files (x86)\IAR Systems\Embedded Wo #
#                            rkbench 8.0\avr\LIB\"                             #
#                            -f                                                #
#                            "C:\Program Files (x86)\IAR Systems\Embedded Work #
#                            bench 8.0\avr\src\template\cfgm168pa.xcl"         #
#                            (-D_..X_INTVEC_SIZE=68 -D_..X_FLASH_END=3FFF      #
#                            -D_..X_FLASH_NEND=_..X_FLASH_END                  #
#                            -D_..X_SRAM_BASE=100 -D_..X_SRAM_TBASE=0          #
#                            -D_..X_SRAM_TSIZE=0 -D_..X_SRAM_END=4FF           #
#                            -D_..X_EXT_SRAM_BASE=_..X_SRAM_END                #
#                            -D_..X_EXT_SRAM_SIZE=0                            #
#                            -D_..X_EXT_ROM_BASE=_..X_SRAM_END                 #
#                            -D_..X_EXT_ROM_SIZE=0                             #
#                            -D_..X_EXT_NV_BASE=_..X_SRAM_END                  #
#                            -D_..X_EXT_NV_SIZE=0 -D_..X_EEPROM_START=0        #
#                            -D_..X_EEPROM_END=1FF) -D_..X_HEAP_SIZE=0         #
#                            -D_..X_TINY_HEAP_SIZE=0                           #
#                            -D_..X_NEAR_HEAP_SIZE=20 -D_..X_FAR_HEAP_SIZE=0   #
#                            -D_..X_HUGE_HEAP_SIZE=0 -D_..X_CSTACK_SIZE=80     #
#                            -D_..X_RSTACK_SIZE=80                             #
#                            -D_..X_FLASH_CODE_END=_..X_FLASH_END -f           #
#                            "C:\Program Files (x86)\IAR Systems\Embedded Work #
#                            bench 8.0\avr\src\template\cfg3soim.xcl"          #
#                            (-ca90 -w29                                       #
#                            -Z(CODE)INTVEC=0-(_..X_INTVEC_SIZE-1)             #
#                            -Z(CODE)TINY_F=_..X_FLASH_BASE-FF                 #
#                            -Z(CODE)NEAR_F=_..X_FLASH_BASE-_..X_FLASH_NEND    #
#                            -Z(CODE)SWITCH=_..X_FLASH_BASE-_..X_FLASH_NEND    #
#                            -Z(CODE)DIFUNCT=_..X_FLASH_BASE-_..X_FLASH_NEND   #
#                            -Z(CODE)CODE=_..X_FLASH_BASE-_..X_FLASH_END       #
#                            -P(CODE)FAR_F=[_..X_FLASH_BASE-_..X_FLASH_END]/10 #
#                            000                                               #
#                            -Z(CODE)INITTAB=_..X_FLASH_BASE-_..X_FLASH_END    #
#                            -Z(CODE)HUGE_F=_..X_FLASH_BASE-_..X_FLASH_END     #
#                            -Z(CODE)TINY_ID=_..X_FLASH_BASE-_..X_FLASH_END    #
#                            -Z(CODE)NEAR_ID=_..X_FLASH_BASE-_..X_FLASH_END    #
#                            -Z(CODE)CHECKSUM#_..X_FLASH_END                   #
#                            -Z(DATA)TINY_I,TINY_Z,TINY_N=_..X_SRAM_TBASE:+_.. #
#                            X_SRAM_TSIZE                                      #
#                            -Z(DATA)CSTACK+_..X_CSTACK_SIZE=_..X_CSTACK_BASE- #
#                            _..X_CSTACK_END                                   #
#                            -Z(DATA)HEAP+_..X_HEAP_SIZE=_..X_SRAM_BASE-_..X_S #
#                            RAM_END                                           #
#                            -Z(DATA)IOSTREAM_N#_..X_SRAM_BASE-_..X_SRAM_END   #
#                            -Z(DATA)NEAR_HEAP+_..X_NEAR_HEAP_SIZE=_..X_SRAM_B #
#                            ASE-_..X_SRAM_END                                 #
#                            -Z(DATA)RSTACK+_..X_RSTACK_SIZE=_..X_RSTACK_BASE- #
#                            _..X_RSTACK_END                                   #
#                            -Z(DATA)NEAR_I,NEAR_Z,NEAR_N=_..X_SRAM_BASE-_..X_ #
#                            SRAM_END                                          #
#                            -Z(XDATA)EEPROM_I,EEPROM_N=_..X_EEPROM_START-_..X #
#                            _EEPROM_END)                                      #
#                            -D_..X_FLASH_BASE=_..X_INTVEC_SIZE                #
#                            -h'1895'(CODE)0-(_..X_INTVEC_SIZE-1)              #
#                            --global_fill -D_..X_CSTACK_BASE=_..X_SRAM_BASE   #
#                            -D_..X_CSTACK_END=_..X_SRAM_END                   #
#                            -D_..X_RSTACK_BASE=_..X_SRAM_BASE                 #
#                            -D_..X_RSTACK_END=_..X_SRAM_END -s                #
#                            __program_start                                   #
#                            "C:\Program Files (x86)\IAR Systems\Embedded Work #
#                            bench 8.0\avr\LIB\DLIB\dlAVR-3s-ec_mul-sf-n.r90"  #
#                            -e_PrintfLarge=_Printf -e_ScanfLarge=_Scanf)      #
#                                                                              #
#                           Copyright (C) 1987-2019 IAR Systems AB.            #
################################################################################





                ****************************************
                *                                      *
                *           CROSS REFERENCE            *
                *                                      *
                ****************************************

       Program entry at : CODE      0000189E  Relocatable, from module : ?C_STARTUP




                ****************************************
                *                                      *
                *            RUNTIME MODEL             *
                *                                      *
                ****************************************

  EEPROM_SIZE                = 2
  R10                        = REG
  R11                        = REG
  R4                         = REG
  R5                         = REG
  R6                         = REG
  R7                         = REG
  R8                         = REG
  R9                         = REG
  __64bit_doubles            = disabled
  __Heap_Handler             = Basic
  __SystemLibrary            = DLib
  __cpu                      = 3
  __cpu_name                 = ATmega168PA
  __dlib_file_descriptor     = 0
  __dlib_full_locale_support = 0
  __enhanced_core            = enabled
  __has_elpm                 = false
  __memory_model             = 2
  __rt_version               = 3
  __tiny_avr                 = false
  __vtable_memory            = __nearflash

                ****************************************
                *                                      *
                *    AUTOMATIC SYMBOL REDIRECTIONS     *
                *                                      *
                ****************************************

                  There are no automatic symbol redirections.



                ****************************************
                *                                      *
                *              MODULE MAP              *
                *                                      *
                ****************************************


  DEFINED ABSOLUTE ENTRIES
  PROGRAM MODULE, NAME : ?ABS_ENTRY_MOD

Absolute parts
           ENTRY                   ADDRESS         REF BY
           =====                   =======         ======
           _..X_RSTACK_END         000004FF 
           _..X_RSTACK_BASE        00000100 
           _..X_CSTACK_END         000004FF 
           _..X_CSTACK_BASE        00000100 
           _..X_FLASH_BASE         00000068 
           _..X_FLASH_CODE_END     00003FFF 
           _..X_RSTACK_SIZE        00000080 
           _..X_CSTACK_SIZE        00000080 
           _..X_HUGE_HEAP_SIZE     00000000 
           _..X_FAR_HEAP_SIZE      00000000 
           _..X_NEAR_HEAP_SIZE     00000020 
           _..X_TINY_HEAP_SIZE     00000000 
           _..X_HEAP_SIZE          00000000 
           _..X_EEPROM_END         000001FF 
           _..X_EEPROM_START       00000000 
           _..X_EXT_NV_SIZE        00000000 
           _..X_EXT_NV_BASE        000004FF 
           _..X_EXT_ROM_SIZE       00000000 
           _..X_EXT_ROM_BASE       000004FF 
           _..X_EXT_SRAM_SIZE      00000000 
           _..X_EXT_SRAM_BASE      000004FF 
           _..X_SRAM_END           000004FF 
           _..X_SRAM_TSIZE         00000000 
           _..X_SRAM_TBASE         00000000 
           _..X_SRAM_BASE          00000100 
           _..X_FLASH_NEND         00003FFF 
           _..X_FLASH_END          00003FFF 
           _..X_INTVEC_SIZE        00000068 
    *************************************************************************

  FILE NAME : C:\Users\troub\CloudStation\Github\GitHub_DST\1. Remove Smoke System\4. MIDO\DST-MIDO-ALMDDS-JST_v1.4_3224\Debug\Obj\adc.r90
  PROGRAM MODULE, NAME : adc

  SEGMENTS IN THE MODULE
  ======================
ABSOLUTE
  Relative segment, address: DATA 0000007C - 0000007C (0x1 bytes), align: 0
  Segment part 1. ROOT        Intra module refs:   ADC_CONVERSION_VECT
                                                   ADC_Initialize
           ENTRY                   ADDRESS         REF BY
           =====                   =======         ======
           _A_ADMUX                0000007C 
           LOCAL                   ADDRESS         
           =====                   =======         
           ADMUX                   0000007C 
    -------------------------------------------------------------------------
ABSOLUTE
  Relative segment, address: DATA 0000007A - 0000007A (0x1 bytes), align: 0
  Segment part 2. ROOT        Intra module refs:   ADC_CONVERSION_VECT
                                                   ADC_Delay_Timer
                                                   ADC_Initialize
           ENTRY                   ADDRESS         REF BY
           =====                   =======         ======
           _A_ADCSRA               0000007A 
           LOCAL                   ADDRESS         
           =====                   =======         
           ADCSRA                  0000007A 
    -------------------------------------------------------------------------
ABSOLUTE
  Relative segment, address: DATA 00000078 - 00000079 (0x2 bytes), align: 0
  Segment part 3. ROOT        Intra module refs:   ADC_CONVERSION_VECT
           ENTRY                   ADDRESS         REF BY
           =====                   =======         ======
           _A_ADC                  00000078 
           LOCAL                   ADDRESS         
           =====                   =======         
           ADC                     00000078 
           ADCH                    00000079 
           ADCL                    00000078 
    -------------------------------------------------------------------------
EEPROM_N
  Relative segment, address: XDATA 00000000 - 00000001 (0x2 bytes), align: 0
  Segment part 11.            Intra module refs:   ADC_Auto_Zero_Process
           ENTRY                   ADDRESS         REF BY
           =====                   =======         ======
           EEP_AutoZero_ADC_Point
                                   00000000        RD_EEP_Value (system_mode)
                                                   System_Auto_Zero_Function (system_mode)
                                                   System_Interval_Auto_Zero_Function (system_mode)
    -------------------------------------------------------------------------
NEAR_Z
  Relative segment, address: DATA 00000230 - 00000231 (0x2 bytes), align: 0
  Segment part 12.            Intra module refs:   ADC_Auto_Zero_Process
           ENTRY                   ADDRESS         REF BY
           =====                   =======         ======
           ADC_AutoZero_Point      00000230        RD_EEP_Value (system_mode)
                                                   System_Auto_Zero_Function (system_mode)
                                                   System_Interval_Auto_Zero_Function (system_mode)
                                                   Twi_Adc_Get_Pressure_Sensor_Value (ps-33d)
    -------------------------------------------------------------------------
NEAR_Z
  Relative segment, address: DATA 00000232 - 00000233 (0x2 bytes), align: 0
  Segment part 14.            Intra module refs:   ADC_CONVERSION_VECT
           ENTRY                   ADDRESS         REF BY
           =====                   =======         ======
           ADC_raw_value           00000232 
    -------------------------------------------------------------------------
NEAR_Z
  Relative segment, address: DATA 00000234 - 00000235 (0x2 bytes), align: 0
  Segment part 15.            Intra module refs:   ADC_CONVERSION_VECT
                                                   ADC_Get_Standard_Pressure_Value
           ENTRY                   ADDRESS         REF BY
           =====                   =======         ======
           ADC_Standard_Set_Value
                                   00000234 
    -------------------------------------------------------------------------
NEAR_Z
  Relative segment, address: DATA 00000236 - 00000237 (0x2 bytes), align: 0
  Segment part 16.            Intra module refs:   ADC_CONVERSION_VECT
           ENTRY                   ADDRESS         REF BY
           =====                   =======         ======
           ADC_Motor_Switch_Value
                                   00000236        Motor_Get_LimitSwitch_Value (motor)
    -------------------------------------------------------------------------
NEAR_Z
  Relative segment, address: DATA 00000238 - 00000239 (0x2 bytes), align: 0
  Segment part 17.            Intra module refs:   ADC_CONVERSION_VECT
           ENTRY                   ADDRESS         REF BY
           =====                   =======         ======
           ADC_Overcurrent_Value   00000238        Motor_Get_OverCurrent_Value (motor)
    -------------------------------------------------------------------------
NEAR_Z
  Relative segment, address: DATA 0000023A - 0000023A (0x1 bytes), align: 0
  Segment part 18.            Intra module refs:   ADC_CONVERSION_VECT
           ENTRY                   ADDRESS         REF BY
           =====                   =======         ======
           AD_CompleteFlag         0000023A 
    -------------------------------------------------------------------------
NEAR_Z
  Relative segment, address: DATA 0000023B - 0000023B (0x1 bytes), align: 0
  Segment part 19.            Intra module refs:   ADC_CONVERSION_VECT
                                                   ADC_Delay_Timer
           ENTRY                   ADDRESS         REF BY
           =====                   =======         ======
           ADC_Delay_Timer_Reg     0000023B 
    -------------------------------------------------------------------------
NEAR_Z
  Relative segment, address: DATA 0000023C - 0000023D (0x2 bytes), align: 0
  Segment part 20.            Intra module refs:   ADC_Delay_Timer
           ENTRY                   ADDRESS         REF BY
           =====                   =======         ======
           ADC_Delay_Timer_Cnt     0000023C 
    -------------------------------------------------------------------------
NEAR_Z
  Relative segment, address: DATA 0000023E - 0000023F (0x2 bytes), align: 0
  Segment part 21.            Intra module refs:   ADC_Get_Standard_Pressure_Value
           ENTRY                   ADDRESS         REF BY
           =====                   =======         ======
           Standard_Pressure_Value
                                   0000023E        Fnd_Display (fnd_display)
                                                   Motor_Get_Pressure_Status (motor)
                                                   Motor_Timer (motor)
                                                   Usart_Operation (usart)
    -------------------------------------------------------------------------
NEAR_Z
  Relative segment, address: DATA 00000240 - 00000241 (0x2 bytes), align: 0
  Segment part 22.            Intra module refs:   ADC_Get_Standard_Pressure_Value
           ENTRY                   ADDRESS         REF BY
           =====                   =======         ======
           Stadnard_Pressure_OldValue
                                   00000240 
    -------------------------------------------------------------------------
NEAR_Z
  Relative segment, address: DATA 00000242 - 00000243 (0x2 bytes), align: 0
  Segment part 23.
           ENTRY                   ADDRESS         REF BY
           =====                   =======         ======
           Real_Pressure_Value     00000242        Fnd_Display (fnd_display)
                                                   Motor_Get_Pressure_Status (motor)
                                                   Motor_Timer (motor)
                                                   Twi_Adc_Get_Pressure_Sensor_Value (ps-33d)
                                                   Usart_Operation (usart)
    -------------------------------------------------------------------------
CODE
  Relative segment, address: CODE 0000007C - 0000017F (0x104 bytes), align: 1
  Segment part 24.            Intra module refs:   ADC_CONVERSION_VECT::??INTVEC 84
           ENTRY                   ADDRESS         REF BY
           =====                   =======         ======
           ADC_CONVERSION_VECT     0000007C 
               interrupt function
               calls direct
    -------------------------------------------------------------------------
CODE
  Relative segment, address: CODE 00000180 - 000001D5 (0x56 bytes), align: 1
  Segment part 25.
           ENTRY                   ADDRESS         REF BY
           =====                   =======         ======
           ADC_Get_Standard_Pressure_Value
                                   00000180        main (main)
               calls direct
    -------------------------------------------------------------------------
CODE
  Relative segment, address: CODE 000001D6 - 00000217 (0x42 bytes), align: 1
  Segment part 26.
           ENTRY                   ADDRESS         REF BY
           =====                   =======         ======
           ADC_Delay_Timer         000001D6        timer2_isr1 (module_initialize)
    -------------------------------------------------------------------------
CODE
  Relative segment, address: CODE 00000218 - 0000024F (0x38 bytes), align: 1
  Segment part 27.
           ENTRY                   ADDRESS         REF BY
           =====                   =======         ======
           ADC_Auto_Zero_Process   00000218        Motor_AutoZero_Process (motor)
               calls direct
    -------------------------------------------------------------------------
CODE
  Relative segment, address: CODE 00000250 - 0000025D (0xe bytes), align: 1
  Segment part 28.
           ENTRY                   ADDRESS         REF BY
           =====                   =======         ======
           ADC_Initialize          00000250        main (main)
    -------------------------------------------------------------------------
ABSOLUTE
  Relative segment, address: DATA 0000001F, align: 0
  Segment part 4. ROOT 
           ENTRY                   ADDRESS         REF BY
           =====                   =======         ======
           __?EECR                 0000001F        ?eeget16 (?EEPROM_16)
                                                   ?eeput16 (?EEPROM_16)
                                                   ?eewait (?EEPROM_16)
    -------------------------------------------------------------------------
ABSOLUTE
  Relative segment, address: DATA 00000020, align: 0
  Segment part 5. ROOT 
           ENTRY                   ADDRESS         REF BY
           =====                   =======         ======
           __?EEDR                 00000020        __eeget16_16 (?EEPROM_16)
                                                   __eeput16_16 (?EEPROM_16)
    -------------------------------------------------------------------------
ABSOLUTE
  Relative segment, address: DATA 00000021, align: 0
  Segment part 6. ROOT 
           ENTRY                   ADDRESS         REF BY
           =====                   =======         ======
           __?EEARL                00000021        ?eeget16 (?EEPROM_16)
                                                   ?eeput16 (?EEPROM_16)
    -------------------------------------------------------------------------
ABSOLUTE
  Relative segment, address: DATA 00000022, align: 0
  Segment part 7. ROOT 
           ENTRY                   ADDRESS         REF BY
           =====                   =======         ======
           __?EEARH                00000022        ?eeget16 (?EEPROM_16)
                                                   ?eeput16 (?EEPROM_16)
    -------------------------------------------------------------------------
INTVEC
  Common segment, address: CODE 00000000 - 00000057 (0x58 bytes), align: 1
  Segment part 8. ROOT 
           ENTRY                   ADDRESS         REF BY
           =====                   =======         ======
           ADC_CONVERSION_VECT::??INTVEC 84
                                   00000054 
    -------------------------------------------------------------------------
CSTACK
  Segment part 9. NOT NEEDED.
    -------------------------------------------------------------------------
RSTACK
  Segment part 10. NOT NEEDED.
    -------------------------------------------------------------------------
INITTAB
  Relative segment, address: CODE 00001E18 - 00001E1D (0x6 bytes), align: 0
  Segment part 13.            Intra module refs:   ADC_AutoZero_Point
                                                   ADC_Delay_Timer_Cnt
                                                   ADC_Delay_Timer_Reg
                                                   ADC_Motor_Switch_Value
                                                   ADC_Overcurrent_Value
                                                   ADC_Span_Set_1_Point (ps-33d)
                                                   ADC_Standard_Set_Value
                                                   ADC_Zero_Set_1_Point (ps-33d)
                                                   ADC_raw_value
                                                   AD_CompleteFlag
                                                   Cal_Pressure_1_Coef (ps-33d)
                                                   Display_Delay_Cnt (fnd_display)
                                                   Display_Mode (fnd_display)
                                                   Display_Number_Enable (fnd_display)
                                                   FND_value (fnd_display)
                                                   Fnd_Digit_Mode (fnd_display)
                                                   Fnd_Display_Cnt (fnd_display)
                                                   Motor_Close_Stop (motor)
                                                   Motor_Open_Stop (motor)
                                                   Motor_Status (motor)
                                                   Motor_Status_old (motor)
                                                   PWM_Count (motor)
                                                   PWM_Enable (motor)
                                                   Pressure_Old_Status (motor)
                                                   Pressure_PA_Value (ps-33d)
                                                   Pressure_Status (motor)
                                                   Real_Pressure_Value
                                                   Scale_Span_Set_1_Value (ps-33d)
                                                   Scale_Zero_Set_1_Value (ps-33d)
                                                   Stadnard_Pressure_OldValue
                                                   Standard_Pressure_Value
                                                   Start_Port_Value (switch)
                                                   Start_Switch_State (switch)
                                                   Switch_Hold_Timer_Cnt (switch)
                                                   Sys_AZ_1S_Timer_Cnt (system_mode)
                                                   Sys_AZ_Delay_Timer_Cnt (system_mode)
                                                   Sys_AZ_Delay_Timer_Reg (system_mode)
                                                   Sys_AZ_Interval_1S_Timer_Cnt (system_mode)
                                                   Sys_AZ_Interval_Flag (system_mode)
                                                   Sys_AZ_Interval_Timer_Cnt (system_mode)
                                                   Sys_AZ_Interval_Timer_Reg (system_mode)
                                                   Sys_Run_Access_Enable (system_mode)
                                                   System_Initialize_Timer_Cnt (system_mode)
                                                   System_Initialize_Timer_Reg (system_mode)
                                                   System_Mode (system_mode)
                                                   TWI_buf (avr_twi_master_driver)
                                                   TWI_msgSize (avr_twi_master_driver)
                                                   TWI_statusReg (avr_twi_master_driver)
                                                   Temp_PortB (alarm)
                                                   Temp_PortD (alarm)
                                                   Timer2_B_Cnt (module_initialize)
                                                   Timer_Motor_OverCurrent_Cnt (motor)
                                                   Timer_Motor_OverCurrent_Reg (motor)
                                                   Timer_Motor_TimeOver_Cnt (motor)
                                                   Timer_Motor_TimeOver_Reg (motor)
                                                   Twi_Data_Buf (ps-33d)
                                                   Twi_Delay_Timer_Cnt (ps-33d)
                                                   Twi_Delay_Timer_Reg (ps-33d)
                                                   Twi_Raw_Value (ps-33d)
                                                   USART_Mode (usart)
                                                   USART_STRUCT (usart)
                                                   USART_Txc_Complete_Flag (usart)
                                                   Usart_Delay_Timer_Cnt (usart)
                                                   Usart_Delay_Timer_Reg (usart)
                                                   twi_isr::TWI_bufPtr (avr_twi_master_driver)
           ENTRY                   ADDRESS         REF BY
           =====                   =======         ======
           ?<Segment init: NEAR_Z>
                                   00001E18 

    *************************************************************************

  FILE NAME : C:\Users\troub\CloudStation\Github\GitHub_DST\1. Remove Smoke System\4. MIDO\DST-MIDO-ALMDDS-JST_v1.4_3224\Debug\Obj\alarm.r90
  PROGRAM MODULE, NAME : alarm

  SEGMENTS IN THE MODULE
  ======================
ABSOLUTE
  Relative segment, address: DATA 0000002B - 0000002B (0x1 bytes), align: 0
  Segment part 1. ROOT        Intra module refs:   Alarm1_Off
                                                   Alarm1_Out
                                                   Alarm2_Off
                                                   Alarm2_Out
                                                   Fnd_All_Off (fnd_display)
                                                   Fnd_Get_Port_Value (fnd_display)
                                                   Gpio_Initialize (module_initialize)
           ENTRY                   ADDRESS         REF BY
           =====                   =======         ======
           _A_PORTD                0000002B 
           LOCAL                   ADDRESS         
           =====                   =======         
           PORTD                   0000002B 
    -------------------------------------------------------------------------
ABSOLUTE
  Relative segment, address: DATA 00000029 - 00000029 (0x1 bytes), align: 0
  Segment part 2. ROOT        Intra module refs:   Alarm1_Off
                                                   Alarm1_Out
                                                   Alarm2_Off
                                                   Alarm2_Out
                                                   Fnd_Get_Port_Value (fnd_display)
           ENTRY                   ADDRESS         REF BY
           =====                   =======         ======
           _A_PIND                 00000029 
           LOCAL                   ADDRESS         
           =====                   =======         
           PIND                    00000029 
    -------------------------------------------------------------------------
ABSOLUTE
  Relative segment, address: DATA 00000025 - 00000025 (0x1 bytes), align: 0
  Segment part 3. ROOT        Intra module refs:   Alarm1_Off
                                                   Alarm1_Out
                                                   Alarm2_Off
                                                   Alarm2_Out
                                                   Fnd_Get_Port_Value (fnd_display)
                                                   Gpio_Initialize (module_initialize)
           ENTRY                   ADDRESS         REF BY
           =====                   =======         ======
           _A_PORTB                00000025 
           LOCAL                   ADDRESS         
           =====                   =======         
           PORTB                   00000025 
    -------------------------------------------------------------------------
ABSOLUTE
  Relative segment, address: DATA 00000023 - 00000023 (0x1 bytes), align: 0
  Segment part 4. ROOT        Intra module refs:   Alarm1_Off
                                                   Alarm1_Out
                                                   Alarm2_Off
                                                   Alarm2_Out
                                                   Fnd_Get_Port_Value (fnd_display)
                                                   Switch_Start_Check (switch)
           ENTRY                   ADDRESS         REF BY
           =====                   =======         ======
           _A_PINB                 00000023 
           LOCAL                   ADDRESS         
           =====                   =======         
           PINB                    00000023 
    -------------------------------------------------------------------------
NEAR_Z
  Relative segment, address: DATA 00000244 - 00000244 (0x1 bytes), align: 0
  Segment part 11.            Intra module refs:   Alarm1_Off
                                                   Alarm1_Out
                                                   Alarm2_Off
                                                   Alarm2_Out
           ENTRY                   ADDRESS         REF BY
           =====                   =======         ======
           Temp_PortB              00000244 
    -------------------------------------------------------------------------
NEAR_Z
  Relative segment, address: DATA 00000245 - 00000245 (0x1 bytes), align: 0
  Segment part 13.            Intra module refs:   Alarm1_Off
                                                   Alarm1_Out
                                                   Alarm2_Off
                                                   Alarm2_Out
           ENTRY                   ADDRESS         REF BY
           =====                   =======         ======
           Temp_PortD              00000245 
    -------------------------------------------------------------------------
CODE
  Relative segment, address: CODE 0000025E - 000002E7 (0x8a bytes), align: 1
  Segment part 14.            Intra module refs:   Alarm1_Out
           ENTRY                   ADDRESS         REF BY
           =====                   =======         ======
           Alarm1_Off              0000025E        Motor_Control (motor)
                                                   Motor_Timer (motor)
    -------------------------------------------------------------------------
CODE
  Relative segment, address: CODE 000002E8 - 0000037D (0x96 bytes), align: 1
  Segment part 15.            Intra module refs:   Alarm2_Out
           ENTRY                   ADDRESS         REF BY
           =====                   =======         ======
           Alarm2_Off              000002E8        Motor_Control (motor)
                                                   Motor_Timer (motor)
    -------------------------------------------------------------------------
CODE
  Relative segment, address: CODE 0000037E - 000003ED (0x70 bytes), align: 1
  Segment part 16.
           ENTRY                   ADDRESS         REF BY
           =====                   =======         ======
           Alarm1_Out              0000037E        Motor_Control (motor)
                                                   Motor_Timer (motor)
               calls direct
    -------------------------------------------------------------------------
CODE
  Relative segment, address: CODE 000003EE - 00000453 (0x66 bytes), align: 1
  Segment part 17.
           ENTRY                   ADDRESS         REF BY
           =====                   =======         ======
           Alarm2_Out              000003EE        Motor_Control (motor)
                                                   Motor_Timer (motor)
               calls direct
    -------------------------------------------------------------------------
ABSOLUTE
  Segment part 5. TENTATIVE. Used definition from adc
           ENTRY                   ADDRESS         REF BY
           =====                   =======         ======
           __?EECR                 
    -------------------------------------------------------------------------
ABSOLUTE
  Segment part 6. TENTATIVE. Used definition from adc
           ENTRY                   ADDRESS         REF BY
           =====                   =======         ======
           __?EEDR                 
    -------------------------------------------------------------------------
ABSOLUTE
  Segment part 7. TENTATIVE. Used definition from adc
           ENTRY                   ADDRESS         REF BY
           =====                   =======         ======
           __?EEARL                
    -------------------------------------------------------------------------
ABSOLUTE
  Segment part 8. TENTATIVE. Used definition from adc
           ENTRY                   ADDRESS         REF BY
           =====                   =======         ======
           __?EEARH                
    -------------------------------------------------------------------------
CSTACK
  Segment part 9. NOT NEEDED.
    -------------------------------------------------------------------------
RSTACK
  Segment part 10. NOT NEEDED.
    -------------------------------------------------------------------------
INITTAB
  Segment part 12. TENTATIVE. Used definition from adc
           ENTRY                   ADDRESS         REF BY
           =====                   =======         ======
           ?<Segment init: NEAR_Z>
                                   

    *************************************************************************

  FILE NAME : C:\Users\troub\CloudStation\Github\GitHub_DST\1. Remove Smoke System\4. MIDO\DST-MIDO-ALMDDS-JST_v1.4_3224\Debug\Obj\avr_gpio_driver.r90
  PROGRAM MODULE, NAME : avr_gpio_driver

  SEGMENTS IN THE MODULE
  ======================
ABSOLUTE
  Segment part 1. TENTATIVE. Used definition from alarm
           ENTRY                   ADDRESS         REF BY
           =====                   =======         ======
           _A_PORTD                
           LOCAL                   ADDRESS         
           =====                   =======         
           PORTD                   0000002B 
    -------------------------------------------------------------------------
ABSOLUTE
  Relative segment, address: DATA 00000028 - 00000028 (0x1 bytes), align: 0
  Segment part 2. ROOT        Intra module refs:   Gpio_Initialize (module_initialize)
                                                   Motor_Timer (motor)
           ENTRY                   ADDRESS         REF BY
           =====                   =======         ======
           _A_PORTC                00000028 
           LOCAL                   ADDRESS         
           =====                   =======         
           PORTC                   00000028 
    -------------------------------------------------------------------------
ABSOLUTE
  Segment part 3. TENTATIVE. Used definition from alarm
           ENTRY                   ADDRESS         REF BY
           =====                   =======         ======
           _A_PORTB                
           LOCAL                   ADDRESS         
           =====                   =======         
           PORTB                   00000025 
    -------------------------------------------------------------------------
CODE
  Segment part 10. NOT NEEDED.
           ENTRY                   ADDRESS         REF BY
           =====                   =======         ======
           GPIO_PortB_OutHigh      
    -------------------------------------------------------------------------
CODE
  Segment part 11. NOT NEEDED.
           ENTRY                   ADDRESS         REF BY
           =====                   =======         ======
           GPIO_PortB_OutLow       
    -------------------------------------------------------------------------
CODE
  Segment part 12. NOT NEEDED.
           ENTRY                   ADDRESS         REF BY
           =====                   =======         ======
           GPIO_PortC_OutHigh      
    -------------------------------------------------------------------------
CODE
  Segment part 13. NOT NEEDED.
           ENTRY                   ADDRESS         REF BY
           =====                   =======         ======
           GPIO_PortC_OutLow       
    -------------------------------------------------------------------------
CODE
  Segment part 14. NOT NEEDED.
           ENTRY                   ADDRESS         REF BY
           =====                   =======         ======
           GPIO_PortD_OutHigh      
    -------------------------------------------------------------------------
CODE
  Segment part 15. NOT NEEDED.
           ENTRY                   ADDRESS         REF BY
           =====                   =======         ======
           GPIO_PortD_OutLow       
    -------------------------------------------------------------------------
ABSOLUTE
  Segment part 4. TENTATIVE. Used definition from adc
           ENTRY                   ADDRESS         REF BY
           =====                   =======         ======
           __?EECR                 
    -------------------------------------------------------------------------
ABSOLUTE
  Segment part 5. TENTATIVE. Used definition from adc
           ENTRY                   ADDRESS         REF BY
           =====                   =======         ======
           __?EEDR                 
    -------------------------------------------------------------------------
ABSOLUTE
  Segment part 6. TENTATIVE. Used definition from adc
           ENTRY                   ADDRESS         REF BY
           =====                   =======         ======
           __?EEARL                
    -------------------------------------------------------------------------
ABSOLUTE
  Segment part 7. TENTATIVE. Used definition from adc
           ENTRY                   ADDRESS         REF BY
           =====                   =======         ======
           __?EEARH                
    -------------------------------------------------------------------------
CSTACK
  Segment part 8. NOT NEEDED.
    -------------------------------------------------------------------------
RSTACK
  Segment part 9. NOT NEEDED.

    *************************************************************************

  FILE NAME : C:\Users\troub\CloudStation\Github\GitHub_DST\1. Remove Smoke System\4. MIDO\DST-MIDO-ALMDDS-JST_v1.4_3224\Debug\Obj\avr_twi_master_driver.r90
  PROGRAM MODULE, NAME : avr_twi_master_driver

  SEGMENTS IN THE MODULE
  ======================
ABSOLUTE
  Relative segment, address: DATA 000000BC - 000000BC (0x1 bytes), align: 0
  Segment part 1. ROOT        Intra module refs:   TWI_Master_Initialise
                                                   TWI_Start_Transceiver_With_Data
                                                   TWI_Transceiver_Busy
                                                   twi_isr
           ENTRY                   ADDRESS         REF BY
           =====                   =======         ======
           _A_TWCR                 000000BC 
           LOCAL                   ADDRESS         
           =====                   =======         
           TWCR                    000000BC 
    -------------------------------------------------------------------------
ABSOLUTE
  Relative segment, address: DATA 000000BB - 000000BB (0x1 bytes), align: 0
  Segment part 2. ROOT        Intra module refs:   TWI_Master_Initialise
                                                   twi_isr
           ENTRY                   ADDRESS         REF BY
           =====                   =======         ======
           _A_TWDR                 000000BB 
           LOCAL                   ADDRESS         
           =====                   =======         
           TWDR                    000000BB 
    -------------------------------------------------------------------------
ABSOLUTE
  Relative segment, address: DATA 000000B9 - 000000B9 (0x1 bytes), align: 0
  Segment part 3. ROOT        Intra module refs:   TWI_Master_Initialise
                                                   twi_isr
           ENTRY                   ADDRESS         REF BY
           =====                   =======         ======
           _A_TWSR                 000000B9 
           LOCAL                   ADDRESS         
           =====                   =======         
           TWSR                    000000B9 
    -------------------------------------------------------------------------
ABSOLUTE
  Relative segment, address: DATA 000000B8 - 000000B8 (0x1 bytes), align: 0
  Segment part 4. ROOT        Intra module refs:   TWI_Master_Initialise
           ENTRY                   ADDRESS         REF BY
           =====                   =======         ======
           _A_TWBR                 000000B8 
           LOCAL                   ADDRESS         
           =====                   =======         
           TWBR                    000000B8 
    -------------------------------------------------------------------------
NEAR_Z
  Relative segment, address: DATA 00000246 - 00000255 (0x10 bytes), align: 0
  Segment part 12.            Intra module refs:   TWI_Start_Transceiver_With_Data
                                                   twi_isr
           ENTRY                   ADDRESS         REF BY
           =====                   =======         ======
           TWI_buf                 00000246        TWI_Operation (ps-33d)
    -------------------------------------------------------------------------
NEAR_Z
  Relative segment, address: DATA 00000256 - 00000256 (0x1 bytes), align: 0
  Segment part 14.            Intra module refs:   TWI_Start_Transceiver_With_Data
                                                   twi_isr
           LOCAL                   ADDRESS         
           =====                   =======         
           TWI_msgSize             00000256 
    -------------------------------------------------------------------------
NEAR_I
  Relative segment, address: DATA 00000200 - 00000200 (0x1 bytes), align: 0
  Segment part 15.            Intra module refs:   TWI_Start_Transceiver_With_Data
                                                   twi_isr
           LOCAL                   ADDRESS         
           =====                   =======         
           TWI_state               00000200 
    -------------------------------------------------------------------------
NEAR_Z
  Relative segment, address: DATA 00000257 - 00000257 (0x1 bytes), align: 0
  Segment part 18.            Intra module refs:   TWI_Start_Transceiver_With_Data
                                                   twi_isr
           ENTRY                   ADDRESS         REF BY
           =====                   =======         ======
           TWI_statusReg           00000257 
    -------------------------------------------------------------------------
CODE
  Relative segment, address: CODE 00000454 - 0000046D (0x1a bytes), align: 1
  Segment part 20.
           ENTRY                   ADDRESS         REF BY
           =====                   =======         ======
           TWI_Master_Initialise   00000454        main (main)
    -------------------------------------------------------------------------
CODE
  Relative segment, address: CODE 0000046E - 00000477 (0xa bytes), align: 1
  Segment part 21.            Intra module refs:   TWI_Start_Transceiver_With_Data
           ENTRY                   ADDRESS         REF BY
           =====                   =======         ======
           TWI_Transceiver_Busy    0000046E        TWI_Operation (ps-33d)
    -------------------------------------------------------------------------
CODE
  Segment part 22. NOT NEEDED.
           ENTRY                   ADDRESS         REF BY
           =====                   =======         ======
           TWI_Get_State_Info      
               calls direct
    -------------------------------------------------------------------------
CODE
  Relative segment, address: CODE 00000478 - 000004C7 (0x50 bytes), align: 1
  Segment part 23.
           ENTRY                   ADDRESS         REF BY
           =====                   =======         ======
           TWI_Start_Transceiver_With_Data
                                   00000478        TWI_Operation (ps-33d)
               calls direct
    -------------------------------------------------------------------------
CODE
  Segment part 24. NOT NEEDED.
           ENTRY                   ADDRESS         REF BY
           =====                   =======         ======
           TWI_Start_Transceiver   
               calls direct
    -------------------------------------------------------------------------
CODE
  Segment part 25. NOT NEEDED.
           ENTRY                   ADDRESS         REF BY
           =====                   =======         ======
           TWI_Get_Data_From_Transceiver
                                   
               calls direct
    -------------------------------------------------------------------------
CODE
  Relative segment, address: CODE 000004C8 - 000005D1 (0x10a bytes), align: 1
  Segment part 26.            Intra module refs:   twi_isr::??INTVEC 96
           ENTRY                   ADDRESS         REF BY
           =====                   =======         ======
           twi_isr                 000004C8 
               interrupt function
    -------------------------------------------------------------------------
NEAR_Z
  Relative segment, address: DATA 00000258 - 00000258 (0x1 bytes), align: 0
  Segment part 19.            Intra module refs:   twi_isr
           LOCAL                   ADDRESS         
           =====                   =======         
           twi_isr::TWI_bufPtr     00000258 
    -------------------------------------------------------------------------
CODE
  Segment part 27. NOT NEEDED.
           ENTRY                   ADDRESS         REF BY
           =====                   =======         ======
           TWI_Act_On_Failure_In_Last_Transmission
                                   
               calls direct
    -------------------------------------------------------------------------
ABSOLUTE
  Segment part 5. TENTATIVE. Used definition from adc
           ENTRY                   ADDRESS         REF BY
           =====                   =======         ======
           __?EECR                 
    -------------------------------------------------------------------------
ABSOLUTE
  Segment part 6. TENTATIVE. Used definition from adc
           ENTRY                   ADDRESS         REF BY
           =====                   =======         ======
           __?EEDR                 
    -------------------------------------------------------------------------
ABSOLUTE
  Segment part 7. TENTATIVE. Used definition from adc
           ENTRY                   ADDRESS         REF BY
           =====                   =======         ======
           __?EEARL                
    -------------------------------------------------------------------------
ABSOLUTE
  Segment part 8. TENTATIVE. Used definition from adc
           ENTRY                   ADDRESS         REF BY
           =====                   =======         ======
           __?EEARH                
    -------------------------------------------------------------------------
INTVEC
  Common segment, address: CODE 00000000 - 00000063 (0x64 bytes), align: 1
  Segment part 9. ROOT 
           ENTRY                   ADDRESS         REF BY
           =====                   =======         ======
           twi_isr::??INTVEC 96    00000060 
    -------------------------------------------------------------------------
CSTACK
  Segment part 10. NOT NEEDED.
    -------------------------------------------------------------------------
RSTACK
  Segment part 11. NOT NEEDED.
    -------------------------------------------------------------------------
INITTAB
  Segment part 13. TENTATIVE. Used definition from adc
           ENTRY                   ADDRESS         REF BY
           =====                   =======         ======
           ?<Segment init: NEAR_Z>
                                   
    -------------------------------------------------------------------------
NEAR_ID
  Relative segment, address: CODE 00001E24 - 00001E24 (0x1 bytes), align: 0
  Segment part 16.            Intra module refs:   TWI_state
    -------------------------------------------------------------------------
INITTAB
  Relative segment, address: CODE 00001E1E - 00001E23 (0x6 bytes), align: 0
  Segment part 17.            Intra module refs:   FND_char (fnd_display)
                                                   FND_select (fnd_display)
                                                   PWM_Off_Count (motor)
                                                   TWI_state
                                                   Twi_Read_Buf (ps-33d)
                                                   Twi_Write_Buf (ps-33d)
                                                   Usart_Txd_Buf (usart)
           ENTRY                   ADDRESS         REF BY
           =====                   =======         ======
           ?<Segment init: NEAR_I>
                                   00001E1E 

    *************************************************************************

  FILE NAME : C:\Users\troub\CloudStation\Github\GitHub_DST\1. Remove Smoke System\4. MIDO\DST-MIDO-ALMDDS-JST_v1.4_3224\Debug\Obj\fnd_display.r90
  PROGRAM MODULE, NAME : fnd_display

  SEGMENTS IN THE MODULE
  ======================
ABSOLUTE
  Segment part 1. TENTATIVE. Used definition from alarm
           ENTRY                   ADDRESS         REF BY
           =====                   =======         ======
           _A_PORTD                
           LOCAL                   ADDRESS         
           =====                   =======         
           PORTD                   0000002B 
    -------------------------------------------------------------------------
ABSOLUTE
  Segment part 2. TENTATIVE. Used definition from alarm
           ENTRY                   ADDRESS         REF BY
           =====                   =======         ======
           _A_PIND                 
           LOCAL                   ADDRESS         
           =====                   =======         
           PIND                    00000029 
    -------------------------------------------------------------------------
ABSOLUTE
  Segment part 3. TENTATIVE. Used definition from alarm
           ENTRY                   ADDRESS         REF BY
           =====                   =======         ======
           _A_PORTB                
           LOCAL                   ADDRESS         
           =====                   =======         
           PORTB                   00000025 
    -------------------------------------------------------------------------
ABSOLUTE
  Segment part 4. TENTATIVE. Used definition from alarm
           ENTRY                   ADDRESS         REF BY
           =====                   =======         ======
           _A_PINB                 
           LOCAL                   ADDRESS         
           =====                   =======         
           PINB                    00000023 
    -------------------------------------------------------------------------
NEAR_I
  Relative segment, address: DATA 00000201 - 0000020C (0xc bytes), align: 0
  Segment part 11.            Intra module refs:   FND_NUMtoCHAR_Transfer
           ENTRY                   ADDRESS         REF BY
           =====                   =======         ======
           FND_char                00000201 
    -------------------------------------------------------------------------
NEAR_Z
  Relative segment, address: DATA 00000259 - 0000025B (0x3 bytes), align: 0
  Segment part 14.            Intra module refs:   FND_NUMtoCHAR_Transfer
                                                   Fnd_Flicking_Rutine
                                                   Fnd_Put_Data_Timer
           ENTRY                   ADDRESS         REF BY
           =====                   =======         ======
           FND_value               00000259 
    -------------------------------------------------------------------------
NEAR_I
  Relative segment, address: DATA 0000020D - 0000020F (0x3 bytes), align: 0
  Segment part 16.            Intra module refs:   Fnd_Put_Data_Timer
           ENTRY                   ADDRESS         REF BY
           =====                   =======         ======
           FND_select              0000020D 
    -------------------------------------------------------------------------
NEAR_Z
  Relative segment, address: DATA 0000025C - 0000025C (0x1 bytes), align: 0
  Segment part 18.            Intra module refs:   Fnd_Display
                                                   Fnd_Display_Timer
                                                   Fnd_Flicking_Rutine
           ENTRY                   ADDRESS         REF BY
           =====                   =======         ======
           Display_Mode            0000025C        ADC_Auto_Zero_Process (adc)
                                                   ADC_Get_Standard_Pressure_Value (adc)
    -------------------------------------------------------------------------
NEAR_Z
  Relative segment, address: DATA 0000025D - 0000025D (0x1 bytes), align: 0
  Segment part 19.            Intra module refs:   Fnd_Display
                                                   Fnd_Display_Timer
           ENTRY                   ADDRESS         REF BY
           =====                   =======         ======
           Display_Number_Enable   0000025D 
    -------------------------------------------------------------------------
CODE
  Relative segment, address: CODE 000005D2 - 0000069D (0xcc bytes), align: 1
  Segment part 26.            Intra module refs:   Fnd_Display
           ENTRY                   ADDRESS         REF BY
           =====                   =======         ======
           FND_NUMtoCHAR_Transfer
                                   000005D2 
               calls direct
    -------------------------------------------------------------------------
NEAR_Z
  Relative segment, address: DATA 0000025E - 0000025F (0x2 bytes), align: 0
  Segment part 20.            Intra module refs:   Fnd_Put_Data_Timer
           ENTRY                   ADDRESS         REF BY
           =====                   =======         ======
           Fnd_Display_Cnt         0000025E 
    -------------------------------------------------------------------------
NEAR_Z
  Relative segment, address: DATA 00000260 - 00000261 (0x2 bytes), align: 0
  Segment part 21.            Intra module refs:   Fnd_Put_Data_Timer
           ENTRY                   ADDRESS         REF BY
           =====                   =======         ======
           Fnd_Digit_Mode          00000260 
    -------------------------------------------------------------------------
NEAR_Z
  Segment part 22. NOT NEEDED.
           ENTRY                   ADDRESS         REF BY
           =====                   =======         ======
           DISPLAY_MASK            
    -------------------------------------------------------------------------
NEAR_Z
  Segment part 23. NOT NEEDED.
           ENTRY                   ADDRESS         REF BY
           =====                   =======         ======
           SYSTEM_MODE             
    -------------------------------------------------------------------------
CODE
  Relative segment, address: CODE 0000069E - 00000751 (0xb4 bytes), align: 1
  Segment part 27.            Intra module refs:   Fnd_Display_Timer
           ENTRY                   ADDRESS         REF BY
           =====                   =======         ======
           Fnd_Flicking_Rutine     0000069E 
    -------------------------------------------------------------------------
CODE
  Relative segment, address: CODE 00000752 - 00000823 (0xd2 bytes), align: 1
  Segment part 28.
           ENTRY                   ADDRESS         REF BY
           =====                   =======         ======
           Fnd_Display_Timer       00000752        timer2_isr1 (module_initialize)
               calls direct
    -------------------------------------------------------------------------
CODE
  Relative segment, address: CODE 00000824 - 000008CB (0xa8 bytes), align: 1
  Segment part 29.
           ENTRY                   ADDRESS         REF BY
           =====                   =======         ======
           Fnd_Display             00000824        main (main)
               calls direct
    -------------------------------------------------------------------------
NEAR_Z
  Relative segment, address: DATA 00000262 - 00000263 (0x2 bytes), align: 0
  Segment part 24.            Intra module refs:   Fnd_Display_Timer
                                                   Fnd_Flicking_Rutine
           ENTRY                   ADDRESS         REF BY
           =====                   =======         ======
           Display_Delay_Cnt       00000262        ADC_Auto_Zero_Process (adc)
                                                   ADC_Get_Standard_Pressure_Value (adc)
    -------------------------------------------------------------------------
NEAR_Z
  Segment part 25. NOT NEEDED.
           ENTRY                   ADDRESS         REF BY
           =====                   =======         ======
           Display_Delay_Reg       
    -------------------------------------------------------------------------
CODE
  Relative segment, address: CODE 000008CC - 000008D3 (0x8 bytes), align: 1
  Segment part 30.            Intra module refs:   Fnd_Put_Data_Timer
           ENTRY                   ADDRESS         REF BY
           =====                   =======         ======
           Fnd_All_Off             000008CC 
    -------------------------------------------------------------------------
CODE
  Relative segment, address: CODE 000008D4 - 000008F3 (0x20 bytes), align: 1
  Segment part 31.            Intra module refs:   Fnd_Put_Data_Timer
           ENTRY                   ADDRESS         REF BY
           =====                   =======         ======
           Fnd_Get_Port_Value      000008D4 
    -------------------------------------------------------------------------
CODE
  Relative segment, address: CODE 000008F4 - 00000A23 (0x130 bytes), align: 1
  Segment part 32.            Intra module refs:   Segment part 33
           ENTRY                   ADDRESS         REF BY
           =====                   =======         ======
           Fnd_Put_Data_Timer      000008F4        timer2_isr1 (module_initialize)
               calls direct
    -------------------------------------------------------------------------
ABSOLUTE
  Segment part 5. TENTATIVE. Used definition from adc
           ENTRY                   ADDRESS         REF BY
           =====                   =======         ======
           __?EECR                 
    -------------------------------------------------------------------------
ABSOLUTE
  Segment part 6. TENTATIVE. Used definition from adc
           ENTRY                   ADDRESS         REF BY
           =====                   =======         ======
           __?EEDR                 
    -------------------------------------------------------------------------
ABSOLUTE
  Segment part 7. TENTATIVE. Used definition from adc
           ENTRY                   ADDRESS         REF BY
           =====                   =======         ======
           __?EEARL                
    -------------------------------------------------------------------------
ABSOLUTE
  Segment part 8. TENTATIVE. Used definition from adc
           ENTRY                   ADDRESS         REF BY
           =====                   =======         ======
           __?EEARH                
    -------------------------------------------------------------------------
CSTACK
  Segment part 9. NOT NEEDED.
    -------------------------------------------------------------------------
RSTACK
  Segment part 10. NOT NEEDED.
    -------------------------------------------------------------------------
NEAR_ID
  Relative segment, address: CODE 00001E25 - 00001E30 (0xc bytes), align: 0
  Segment part 12.            Intra module refs:   FND_char
    -------------------------------------------------------------------------
INITTAB
  Segment part 13. TENTATIVE. Used definition from avr_twi_master_driver
           ENTRY                   ADDRESS         REF BY
           =====                   =======         ======
           ?<Segment init: NEAR_I>
                                   
    -------------------------------------------------------------------------
INITTAB
  Segment part 15. TENTATIVE. Used definition from adc
           ENTRY                   ADDRESS         REF BY
           =====                   =======         ======
           ?<Segment init: NEAR_Z>
                                   
    -------------------------------------------------------------------------
NEAR_ID
  Relative segment, address: CODE 00001E31 - 00001E33 (0x3 bytes), align: 0
  Segment part 17.            Intra module refs:   FND_select
    -------------------------------------------------------------------------
SWITCH
  Relative segment, address: CODE 00000068 - 0000007B (0x14 bytes), align: 1
  Segment part 33.            Intra module refs:   Fnd_Put_Data_Timer

    *************************************************************************

  FILE NAME : C:\Users\troub\CloudStation\Github\GitHub_DST\1. Remove Smoke System\4. MIDO\DST-MIDO-ALMDDS-JST_v1.4_3224\Debug\Obj\main.r90
  PROGRAM MODULE, NAME : main

  SEGMENTS IN THE MODULE
  ======================
CODE
  Relative segment, address: CODE 00000A24 - 00000A5F (0x3c bytes), align: 1
  Segment part 7.
           ENTRY                   ADDRESS         REF BY
           =====                   =======         ======
           main                    00000A24        ?cstartup_call_main (?C_STARTUP)
               calls direct
    -------------------------------------------------------------------------
ABSOLUTE
  Segment part 1. TENTATIVE. Used definition from adc
           ENTRY                   ADDRESS         REF BY
           =====                   =======         ======
           __?EECR                 
    -------------------------------------------------------------------------
ABSOLUTE
  Segment part 2. TENTATIVE. Used definition from adc
           ENTRY                   ADDRESS         REF BY
           =====                   =======         ======
           __?EEDR                 
    -------------------------------------------------------------------------
ABSOLUTE
  Segment part 3. TENTATIVE. Used definition from adc
           ENTRY                   ADDRESS         REF BY
           =====                   =======         ======
           __?EEARL                
    -------------------------------------------------------------------------
ABSOLUTE
  Segment part 4. TENTATIVE. Used definition from adc
           ENTRY                   ADDRESS         REF BY
           =====                   =======         ======
           __?EEARH                
    -------------------------------------------------------------------------
CSTACK
  Segment part 5. NOT NEEDED.
    -------------------------------------------------------------------------
RSTACK
  Segment part 6. NOT NEEDED.

    *************************************************************************

  FILE NAME : C:\Users\troub\CloudStation\Github\GitHub_DST\1. Remove Smoke System\4. MIDO\DST-MIDO-ALMDDS-JST_v1.4_3224\Debug\Obj\module_initialize.r90
  PROGRAM MODULE, NAME : module_initialize

  SEGMENTS IN THE MODULE
  ======================
ABSOLUTE
  Relative segment, address: DATA 000000B4 - 000000B4 (0x1 bytes), align: 0
  Segment part 1. ROOT        Intra module refs:   Timer2_Initialize
           ENTRY                   ADDRESS         REF BY
           =====                   =======         ======
           _A_OCR2B                000000B4 
           LOCAL                   ADDRESS         
           =====                   =======         
           OCR2B                   000000B4 
    -------------------------------------------------------------------------
ABSOLUTE
  Relative segment, address: DATA 000000B3 - 000000B3 (0x1 bytes), align: 0
  Segment part 2. ROOT        Intra module refs:   Timer2_Initialize
           ENTRY                   ADDRESS         REF BY
           =====                   =======         ======
           _A_OCR2A                000000B3 
           LOCAL                   ADDRESS         
           =====                   =======         
           OCR2A                   000000B3 
    -------------------------------------------------------------------------
ABSOLUTE
  Relative segment, address: DATA 000000B1 - 000000B1 (0x1 bytes), align: 0
  Segment part 3. ROOT        Intra module refs:   Timer2_Initialize
           ENTRY                   ADDRESS         REF BY
           =====                   =======         ======
           _A_TCCR2B               000000B1 
           LOCAL                   ADDRESS         
           =====                   =======         
           TCCR2B                  000000B1 
    -------------------------------------------------------------------------
ABSOLUTE
  Relative segment, address: DATA 000000B0 - 000000B0 (0x1 bytes), align: 0
  Segment part 4. ROOT        Intra module refs:   Timer2_Initialize
           ENTRY                   ADDRESS         REF BY
           =====                   =======         ======
           _A_TCCR2A               000000B0 
           LOCAL                   ADDRESS         
           =====                   =======         
           TCCR2A                  000000B0 
    -------------------------------------------------------------------------
ABSOLUTE
  Relative segment, address: DATA 00000070 - 00000070 (0x1 bytes), align: 0
  Segment part 5. ROOT        Intra module refs:   Timer2_Initialize
           ENTRY                   ADDRESS         REF BY
           =====                   =======         ======
           _A_TIMSK2               00000070 
           LOCAL                   ADDRESS         
           =====                   =======         
           TIMSK2                  00000070 
    -------------------------------------------------------------------------
ABSOLUTE
  Segment part 6. TENTATIVE. Used definition from alarm
           ENTRY                   ADDRESS         REF BY
           =====                   =======         ======
           _A_PORTD                
           LOCAL                   ADDRESS         
           =====                   =======         
           PORTD                   0000002B 
    -------------------------------------------------------------------------
ABSOLUTE
  Relative segment, address: DATA 0000002A - 0000002A (0x1 bytes), align: 0
  Segment part 7. ROOT        Intra module refs:   Gpio_Initialize
           ENTRY                   ADDRESS         REF BY
           =====                   =======         ======
           _A_DDRD                 0000002A 
           LOCAL                   ADDRESS         
           =====                   =======         
           DDRD                    0000002A 
    -------------------------------------------------------------------------
ABSOLUTE
  Segment part 8. TENTATIVE. Used definition from avr_gpio_driver
           ENTRY                   ADDRESS         REF BY
           =====                   =======         ======
           _A_PORTC                
           LOCAL                   ADDRESS         
           =====                   =======         
           PORTC                   00000028 
    -------------------------------------------------------------------------
ABSOLUTE
  Relative segment, address: DATA 00000027 - 00000027 (0x1 bytes), align: 0
  Segment part 9. ROOT        Intra module refs:   Gpio_Initialize
           ENTRY                   ADDRESS         REF BY
           =====                   =======         ======
           _A_DDRC                 00000027 
           LOCAL                   ADDRESS         
           =====                   =======         
           DDRC                    00000027 
    -------------------------------------------------------------------------
ABSOLUTE
  Segment part 10. TENTATIVE. Used definition from alarm
           ENTRY                   ADDRESS         REF BY
           =====                   =======         ======
           _A_PORTB                
           LOCAL                   ADDRESS         
           =====                   =======         
           PORTB                   00000025 
    -------------------------------------------------------------------------
ABSOLUTE
  Relative segment, address: DATA 00000024 - 00000024 (0x1 bytes), align: 0
  Segment part 11. ROOT       Intra module refs:   Gpio_Initialize
           ENTRY                   ADDRESS         REF BY
           =====                   =======         ======
           _A_DDRB                 00000024 
           LOCAL                   ADDRESS         
           =====                   =======         
           DDRB                    00000024 
    -------------------------------------------------------------------------
CODE
  Relative segment, address: CODE 00000A60 - 00000A79 (0x1a bytes), align: 1
  Segment part 23.
           ENTRY                   ADDRESS         REF BY
           =====                   =======         ======
           Gpio_Initialize         00000A60        main (main)
    -------------------------------------------------------------------------
CODE
  Relative segment, address: CODE 00000A7A - 00000A99 (0x20 bytes), align: 1
  Segment part 24.
           ENTRY                   ADDRESS         REF BY
           =====                   =======         ======
           Timer2_Initialize       00000A7A        main (main)
    -------------------------------------------------------------------------
NEAR_Z
  Segment part 20. NOT NEEDED.
           ENTRY                   ADDRESS         REF BY
           =====                   =======         ======
           Timer2_A_Cnt            
    -------------------------------------------------------------------------
NEAR_Z
  Relative segment, address: DATA 00000264 - 00000265 (0x2 bytes), align: 0
  Segment part 22.            Intra module refs:   timer2_isr2
           ENTRY                   ADDRESS         REF BY
           =====                   =======         ======
           Timer2_B_Cnt            00000264 
    -------------------------------------------------------------------------
CODE
  Relative segment, address: CODE 00000A9A - 00000AFF (0x66 bytes), align: 1
  Segment part 25.            Intra module refs:   timer2_isr1::??INTVEC 28
           ENTRY                   ADDRESS         REF BY
           =====                   =======         ======
           timer2_isr1             00000A9A 
               interrupt function
               calls direct
    -------------------------------------------------------------------------
CODE
  Relative segment, address: CODE 00000B00 - 00000B5D (0x5e bytes), align: 1
  Segment part 26.            Intra module refs:   timer2_isr2::??INTVEC 32
           ENTRY                   ADDRESS         REF BY
           =====                   =======         ======
           timer2_isr2             00000B00 
               interrupt function
               calls direct
    -------------------------------------------------------------------------
ABSOLUTE
  Segment part 12. TENTATIVE. Used definition from adc
           ENTRY                   ADDRESS         REF BY
           =====                   =======         ======
           __?EECR                 
    -------------------------------------------------------------------------
ABSOLUTE
  Segment part 13. TENTATIVE. Used definition from adc
           ENTRY                   ADDRESS         REF BY
           =====                   =======         ======
           __?EEDR                 
    -------------------------------------------------------------------------
ABSOLUTE
  Segment part 14. TENTATIVE. Used definition from adc
           ENTRY                   ADDRESS         REF BY
           =====                   =======         ======
           __?EEARL                
    -------------------------------------------------------------------------
ABSOLUTE
  Segment part 15. TENTATIVE. Used definition from adc
           ENTRY                   ADDRESS         REF BY
           =====                   =======         ======
           __?EEARH                
    -------------------------------------------------------------------------
INTVEC
  Common segment, address: CODE 00000000 - 0000001F (0x20 bytes), align: 1
  Segment part 16. ROOT 
           ENTRY                   ADDRESS         REF BY
           =====                   =======         ======
           timer2_isr1::??INTVEC 28
                                   0000001C 
    -------------------------------------------------------------------------
INTVEC
  Common segment, address: CODE 00000000 - 00000023 (0x24 bytes), align: 1
  Segment part 17. ROOT 
           ENTRY                   ADDRESS         REF BY
           =====                   =======         ======
           timer2_isr2::??INTVEC 32
                                   00000020 
    -------------------------------------------------------------------------
CSTACK
  Segment part 18. NOT NEEDED.
    -------------------------------------------------------------------------
RSTACK
  Segment part 19. NOT NEEDED.
    -------------------------------------------------------------------------
INITTAB
  Segment part 21. TENTATIVE. Used definition from adc
           ENTRY                   ADDRESS         REF BY
           =====                   =======         ======
           ?<Segment init: NEAR_Z>
                                   

    *************************************************************************

  FILE NAME : C:\Users\troub\CloudStation\Github\GitHub_DST\1. Remove Smoke System\4. MIDO\DST-MIDO-ALMDDS-JST_v1.4_3224\Debug\Obj\motor.r90
  PROGRAM MODULE, NAME : motor

  SEGMENTS IN THE MODULE
  ======================
ABSOLUTE
  Segment part 1. TENTATIVE. Used definition from avr_gpio_driver
           ENTRY                   ADDRESS         REF BY
           =====                   =======         ======
           _A_PORTC                
           LOCAL                   ADDRESS         
           =====                   =======         
           PORTC                   00000028 
    -------------------------------------------------------------------------
NEAR_Z
  Segment part 8. NOT NEEDED.
           ENTRY                   ADDRESS         REF BY
           =====                   =======         ======
           OverCurrent_Status      
    -------------------------------------------------------------------------
NEAR_Z
  Relative segment, address: DATA 00000266 - 00000266 (0x1 bytes), align: 0
  Segment part 10.            Intra module refs:   Motor_Control
                                                   Motor_REG_Initialize
                                                   Motor_Timer
           ENTRY                   ADDRESS         REF BY
           =====                   =======         ======
           PWM_Enable              00000266 
    -------------------------------------------------------------------------
NEAR_Z
  Relative segment, address: DATA 00000267 - 00000267 (0x1 bytes), align: 0
  Segment part 11.            Intra module refs:   Motor_Change_Status_Process
                                                   Motor_REG_Initialize
                                                   Motor_Timer
           ENTRY                   ADDRESS         REF BY
           =====                   =======         ======
           Timer_Motor_TimeOver_Reg
                                   00000267 
    -------------------------------------------------------------------------
NEAR_Z
  Relative segment, address: DATA 00000268 - 0000026B (0x4 bytes), align: 0
  Segment part 12.            Intra module refs:   Motor_REG_Initialize
                                                   Motor_Timer
           ENTRY                   ADDRESS         REF BY
           =====                   =======         ======
           Timer_Motor_TimeOver_Cnt
                                   00000268 
    -------------------------------------------------------------------------
NEAR_Z
  Relative segment, address: DATA 0000026C - 0000026C (0x1 bytes), align: 0
  Segment part 13.            Intra module refs:   Motor_Get_OverCurrent_Value
                                                   Motor_REG_Initialize
                                                   Motor_Timer
           ENTRY                   ADDRESS         REF BY
           =====                   =======         ======
           Timer_Motor_OverCurrent_Reg
                                   0000026C 
    -------------------------------------------------------------------------
NEAR_Z
  Relative segment, address: DATA 0000026D - 0000026E (0x2 bytes), align: 0
  Segment part 14.            Intra module refs:   Motor_Get_OverCurrent_Value
                                                   Motor_REG_Initialize
                                                   Motor_Timer
           ENTRY                   ADDRESS         REF BY
           =====                   =======         ======
           Timer_Motor_OverCurrent_Cnt
                                   0000026D 
    -------------------------------------------------------------------------
NEAR_I
  Relative segment, address: DATA 00000210 - 00000211 (0x2 bytes), align: 0
  Segment part 15.            Intra module refs:   Motor_Timer
           ENTRY                   ADDRESS         REF BY
           =====                   =======         ======
           PWM_Off_Count           00000210 
    -------------------------------------------------------------------------
NEAR_Z
  Segment part 18. NOT NEEDED.
           ENTRY                   ADDRESS         REF BY
           =====                   =======         ======
           PWM_Current_Value       
    -------------------------------------------------------------------------
NEAR_Z
  Relative segment, address: DATA 0000026F - 00000270 (0x2 bytes), align: 0
  Segment part 19.            Intra module refs:   Motor_REG_Initialize
                                                   Motor_Timer
           ENTRY                   ADDRESS         REF BY
           =====                   =======         ======
           PWM_Count               0000026F 
    -------------------------------------------------------------------------
CODE
  Relative segment, address: CODE 00000B5E - 00000B9D (0x40 bytes), align: 1
  Segment part 27.            Intra module refs:   Motor_Change_Status_Process
                                                   Motor_Timer
           ENTRY                   ADDRESS         REF BY
           =====                   =======         ======
           Motor_REG_Initialize    00000B5E 
    -------------------------------------------------------------------------
NEAR_Z
  Relative segment, address: DATA 00000271 - 00000271 (0x1 bytes), align: 0
  Segment part 20.            Intra module refs:   Motor_Change_Status_Process
                                                   Motor_Control
                                                   Motor_Get_Pressure_Status
                                                   Motor_Timer
           ENTRY                   ADDRESS         REF BY
           =====                   =======         ======
           Pressure_Status         00000271 
    -------------------------------------------------------------------------
NEAR_Z
  Relative segment, address: DATA 00000272 - 00000272 (0x1 bytes), align: 0
  Segment part 21.            Intra module refs:   Motor_Change_Status_Process
           ENTRY                   ADDRESS         REF BY
           =====                   =======         ======
           Pressure_Old_Status     00000272 
    -------------------------------------------------------------------------
NEAR_Z
  Relative segment, address: DATA 00000273 - 00000273 (0x1 bytes), align: 0
  Segment part 22.            Intra module refs:   Motor_AutoZero_Process
                                                   Motor_Change_Status_Process
                                                   Motor_Get_LimitSwitch_Value
                                                   Motor_Timer
           ENTRY                   ADDRESS         REF BY
           =====                   =======         ======
           Motor_Status            00000273        Alarm1_Out (alarm)
                                                   Alarm2_Out (alarm)
    -------------------------------------------------------------------------
NEAR_Z
  Relative segment, address: DATA 00000274 - 00000274 (0x1 bytes), align: 0
  Segment part 23.            Intra module refs:   Motor_Change_Status_Process
                                                   Motor_Control
                                                   Motor_Timer
           ENTRY                   ADDRESS         REF BY
           =====                   =======         ======
           Motor_Close_Stop        00000274 
    -------------------------------------------------------------------------
NEAR_Z
  Relative segment, address: DATA 00000275 - 00000275 (0x1 bytes), align: 0
  Segment part 24.            Intra module refs:   Motor_Change_Status_Process
                                                   Motor_Control
                                                   Motor_Timer
           ENTRY                   ADDRESS         REF BY
           =====                   =======         ======
           Motor_Open_Stop         00000275 
    -------------------------------------------------------------------------
CODE
  Relative segment, address: CODE 00000B9E - 00000CD7 (0x13a bytes), align: 1
  Segment part 28.            Intra module refs:   Motor_Operation
           ENTRY                   ADDRESS         REF BY
           =====                   =======         ======
           Motor_Get_Pressure_Status
                                   00000B9E 
    -------------------------------------------------------------------------
CODE
  Relative segment, address: CODE 00000CD8 - 00000D85 (0xae bytes), align: 1
  Segment part 29.            Intra module refs:   Motor_Operation
           ENTRY                   ADDRESS         REF BY
           =====                   =======         ======
           Motor_Change_Status_Process
                                   00000CD8 
               calls direct
    -------------------------------------------------------------------------
CODE
  Relative segment, address: CODE 00000D86 - 00000E03 (0x7e bytes), align: 1
  Segment part 30.            Intra module refs:   Motor_Operation
           ENTRY                   ADDRESS         REF BY
           =====                   =======         ======
           Motor_Control           00000D86 
               calls direct
    -------------------------------------------------------------------------
NEAR_Z
  Relative segment, address: DATA 00000276 - 00000276 (0x1 bytes), align: 0
  Segment part 25.            Intra module refs:   Motor_Get_LimitSwitch_Value
           ENTRY                   ADDRESS         REF BY
           =====                   =======         ======
           Motor_Status_old        00000276 
    -------------------------------------------------------------------------
NEAR_Z
  Segment part 26. NOT NEEDED.
           ENTRY                   ADDRESS         REF BY
           =====                   =======         ======
           Motor_Status_Cnt        
    -------------------------------------------------------------------------
CODE
  Relative segment, address: CODE 00000E04 - 00000EF3 (0xf0 bytes), align: 1
  Segment part 31.
           ENTRY                   ADDRESS         REF BY
           =====                   =======         ======
           Motor_Get_LimitSwitch_Value
                                   00000E04        ADC_CONVERSION_VECT (adc)
    -------------------------------------------------------------------------
CODE
  Relative segment, address: CODE 00000EF4 - 00000F01 (0xe bytes), align: 1
  Segment part 32.            Intra module refs:   Motor_Operation
           ENTRY                   ADDRESS         REF BY
           =====                   =======         ======
           Motor_AutoZero_Process
                                   00000EF4 
               calls direct
    -------------------------------------------------------------------------
CODE
  Relative segment, address: CODE 00000F02 - 00000F35 (0x34 bytes), align: 1
  Segment part 33.            Intra module refs:   Motor_Operation
           ENTRY                   ADDRESS         REF BY
           =====                   =======         ======
           Motor_Get_OverCurrent_Value
                                   00000F02 
    -------------------------------------------------------------------------
CODE
  Relative segment, address: CODE 00000F36 - 0000120F (0x2da bytes), align: 1
  Segment part 34.
           ENTRY                   ADDRESS         REF BY
           =====                   =======         ======
           Motor_Timer             00000F36        timer2_isr1 (module_initialize)
               calls direct
    -------------------------------------------------------------------------
CODE
  Relative segment, address: CODE 00001210 - 0000121B (0xc bytes), align: 1
  Segment part 35.
           ENTRY                   ADDRESS         REF BY
           =====                   =======         ======
           Motor_Operation         00001210        main (main)
               calls direct
    -------------------------------------------------------------------------
ABSOLUTE
  Segment part 2. TENTATIVE. Used definition from adc
           ENTRY                   ADDRESS         REF BY
           =====                   =======         ======
           __?EECR                 
    -------------------------------------------------------------------------
ABSOLUTE
  Segment part 3. TENTATIVE. Used definition from adc
           ENTRY                   ADDRESS         REF BY
           =====                   =======         ======
           __?EEDR                 
    -------------------------------------------------------------------------
ABSOLUTE
  Segment part 4. TENTATIVE. Used definition from adc
           ENTRY                   ADDRESS         REF BY
           =====                   =======         ======
           __?EEARL                
    -------------------------------------------------------------------------
ABSOLUTE
  Segment part 5. TENTATIVE. Used definition from adc
           ENTRY                   ADDRESS         REF BY
           =====                   =======         ======
           __?EEARH                
    -------------------------------------------------------------------------
CSTACK
  Segment part 6. NOT NEEDED.
    -------------------------------------------------------------------------
RSTACK
  Segment part 7. NOT NEEDED.
    -------------------------------------------------------------------------
INITTAB
  Segment part 9. TENTATIVE. Used definition from adc
           ENTRY                   ADDRESS         REF BY
           =====                   =======         ======
           ?<Segment init: NEAR_Z>
                                   
    -------------------------------------------------------------------------
NEAR_ID
  Relative segment, address: CODE 00001E34 - 00001E35 (0x2 bytes), align: 0
  Segment part 16.            Intra module refs:   PWM_Off_Count
    -------------------------------------------------------------------------
INITTAB
  Segment part 17. TENTATIVE. Used definition from avr_twi_master_driver
           ENTRY                   ADDRESS         REF BY
           =====                   =======         ======
           ?<Segment init: NEAR_I>
                                   

    *************************************************************************

  FILE NAME : C:\Users\troub\CloudStation\Github\GitHub_DST\1. Remove Smoke System\4. MIDO\DST-MIDO-ALMDDS-JST_v1.4_3224\Debug\Obj\ps-33d.r90
  PROGRAM MODULE, NAME : ps-33d

  SEGMENTS IN THE MODULE
  ======================
NEAR_I
  Relative segment, address: DATA 00000212 - 0000021B (0xa bytes), align: 0
  Segment part 7.             Intra module refs:   TWI_Operation
           ENTRY                   ADDRESS         REF BY
           =====                   =======         ======
           Twi_Write_Buf           00000212 
    -------------------------------------------------------------------------
NEAR_I
  Relative segment, address: DATA 0000021C - 00000225 (0xa bytes), align: 0
  Segment part 10.            Intra module refs:   TWI_Operation
           ENTRY                   ADDRESS         REF BY
           =====                   =======         ======
           Twi_Read_Buf            0000021C 
    -------------------------------------------------------------------------
NEAR_Z
  Relative segment, address: DATA 00000277 - 00000280 (0xa bytes), align: 0
  Segment part 12.            Intra module refs:   TWI_Operation
           ENTRY                   ADDRESS         REF BY
           =====                   =======         ======
           Twi_Data_Buf            00000277 
    -------------------------------------------------------------------------
NEAR_Z
  Relative segment, address: DATA 00000281 - 00000281 (0x1 bytes), align: 0
  Segment part 14.            Intra module refs:   TWI_Operation
                                                   Twi_Timer
           ENTRY                   ADDRESS         REF BY
           =====                   =======         ======
           Twi_Delay_Timer_Reg     00000281 
    -------------------------------------------------------------------------
NEAR_Z
  Relative segment, address: DATA 00000282 - 00000283 (0x2 bytes), align: 0
  Segment part 15.            Intra module refs:   Twi_Timer
           ENTRY                   ADDRESS         REF BY
           =====                   =======         ======
           Twi_Delay_Timer_Cnt     00000282 
    -------------------------------------------------------------------------
NEAR_Z
  Relative segment, address: DATA 00000284 - 00000287 (0x4 bytes), align: 0
  Segment part 16.            Intra module refs:   TWI_Operation
                                                   Twi_Adc_Get_Pressure_Sensor_Value
           ENTRY                   ADDRESS         REF BY
           =====                   =======         ======
           Twi_Raw_Value           00000284 
    -------------------------------------------------------------------------
CODE
  Relative segment, address: CODE 0000121C - 00001257 (0x3c bytes), align: 1
  Segment part 25.
           ENTRY                   ADDRESS         REF BY
           =====                   =======         ======
           Twi_Timer               0000121C        timer2_isr2 (module_initialize)
    -------------------------------------------------------------------------
CODE
  Relative segment, address: CODE 00001258 - 0000132D (0xd6 bytes), align: 1
  Segment part 26.
           ENTRY                   ADDRESS         REF BY
           =====                   =======         ======
           TWI_Operation           00001258        main (main)
               calls direct
    -------------------------------------------------------------------------
NEAR_Z
  Relative segment, address: DATA 00000288 - 00000289 (0x2 bytes), align: 0
  Segment part 17.            Intra module refs:   Twi_Adc_Get_Pressure_Sensor_Value
                                                   Twi_Adc_Push_Coef
           ENTRY                   ADDRESS         REF BY
           =====                   =======         ======
           Scale_Zero_Set_1_Value
                                   00000288 
    -------------------------------------------------------------------------
NEAR_Z
  Relative segment, address: DATA 0000028A - 0000028B (0x2 bytes), align: 0
  Segment part 18.            Intra module refs:   Twi_Adc_Push_Coef
           ENTRY                   ADDRESS         REF BY
           =====                   =======         ======
           Scale_Span_Set_1_Value
                                   0000028A 
    -------------------------------------------------------------------------
NEAR_Z
  Relative segment, address: DATA 0000028C - 0000028F (0x4 bytes), align: 0
  Segment part 19.            Intra module refs:   Twi_Adc_Get_Pressure_Sensor_Value
                                                   Twi_Adc_Push_Coef
           ENTRY                   ADDRESS         REF BY
           =====                   =======         ======
           Cal_Pressure_1_Coef     0000028C 
    -------------------------------------------------------------------------
NEAR_Z
  Segment part 20. NOT NEEDED.
           ENTRY                   ADDRESS         REF BY
           =====                   =======         ======
           Cal_Pressure_2_Coef     
    -------------------------------------------------------------------------
NEAR_Z
  Segment part 21. NOT NEEDED.
           ENTRY                   ADDRESS         REF BY
           =====                   =======         ======
           Cal_Pressure_3_Coef     
    -------------------------------------------------------------------------
NEAR_Z
  Relative segment, address: DATA 00000290 - 00000293 (0x4 bytes), align: 0
  Segment part 22.            Intra module refs:   Twi_Adc_Get_Pressure_Sensor_Value
                                                   Twi_Adc_Push_Coef
           ENTRY                   ADDRESS         REF BY
           =====                   =======         ======
           ADC_Zero_Set_1_Point    00000290 
    -------------------------------------------------------------------------
NEAR_Z
  Relative segment, address: DATA 00000294 - 00000297 (0x4 bytes), align: 0
  Segment part 23.            Intra module refs:   Twi_Adc_Push_Coef
           ENTRY                   ADDRESS         REF BY
           =====                   =======         ======
           ADC_Span_Set_1_Point    00000294 
    -------------------------------------------------------------------------
NEAR_Z
  Relative segment, address: DATA 00000298 - 00000299 (0x2 bytes), align: 0
  Segment part 24.            Intra module refs:   Twi_Adc_Get_Pressure_Sensor_Value
           ENTRY                   ADDRESS         REF BY
           =====                   =======         ======
           Pressure_PA_Value       00000298        ADC_Auto_Zero_Process (adc)
                                                   System_Auto_Zero_Function (system_mode)
                                                   System_Interval_Auto_Zero_Function (system_mode)
    -------------------------------------------------------------------------
CODE
  Relative segment, address: CODE 0000132E - 000013D7 (0xaa bytes), align: 1
  Segment part 27.
           ENTRY                   ADDRESS         REF BY
           =====                   =======         ======
           Twi_Adc_Push_Coef       0000132E        main (main)
               calls direct
    -------------------------------------------------------------------------
CODE
  Relative segment, address: CODE 000013D8 - 00001403 (0x2c bytes), align: 1
  Segment part 28.            Intra module refs:   Twi_Adc_Get_Pressure_Sensor_Value
           ENTRY                   ADDRESS         REF BY
           =====                   =======         ======
           Twi_Adc_Cal_Real_Value
                                   000013D8 
               calls direct
    -------------------------------------------------------------------------
CODE
  Relative segment, address: CODE 00001404 - 00001467 (0x64 bytes), align: 1
  Segment part 29.
           ENTRY                   ADDRESS         REF BY
           =====                   =======         ======
           Twi_Adc_Get_Pressure_Sensor_Value
                                   00001404        main (main)
               calls direct
    -------------------------------------------------------------------------
ABSOLUTE
  Segment part 1. TENTATIVE. Used definition from adc
           ENTRY                   ADDRESS         REF BY
           =====                   =======         ======
           __?EECR                 
    -------------------------------------------------------------------------
ABSOLUTE
  Segment part 2. TENTATIVE. Used definition from adc
           ENTRY                   ADDRESS         REF BY
           =====                   =======         ======
           __?EEDR                 
    -------------------------------------------------------------------------
ABSOLUTE
  Segment part 3. TENTATIVE. Used definition from adc
           ENTRY                   ADDRESS         REF BY
           =====                   =======         ======
           __?EEARL                
    -------------------------------------------------------------------------
ABSOLUTE
  Segment part 4. TENTATIVE. Used definition from adc
           ENTRY                   ADDRESS         REF BY
           =====                   =======         ======
           __?EEARH                
    -------------------------------------------------------------------------
CSTACK
  Segment part 5. NOT NEEDED.
    -------------------------------------------------------------------------
RSTACK
  Segment part 6. NOT NEEDED.
    -------------------------------------------------------------------------
NEAR_ID
  Relative segment, address: CODE 00001E36 - 00001E3F (0xa bytes), align: 0
  Segment part 8.             Intra module refs:   Twi_Write_Buf
    -------------------------------------------------------------------------
INITTAB
  Segment part 9. TENTATIVE. Used definition from avr_twi_master_driver
           ENTRY                   ADDRESS         REF BY
           =====                   =======         ======
           ?<Segment init: NEAR_I>
                                   
    -------------------------------------------------------------------------
NEAR_ID
  Relative segment, address: CODE 00001E40 - 00001E49 (0xa bytes), align: 0
  Segment part 11.            Intra module refs:   Twi_Read_Buf
    -------------------------------------------------------------------------
INITTAB
  Segment part 13. TENTATIVE. Used definition from adc
           ENTRY                   ADDRESS         REF BY
           =====                   =======         ======
           ?<Segment init: NEAR_Z>
                                   

    *************************************************************************

  FILE NAME : C:\Users\troub\CloudStation\Github\GitHub_DST\1. Remove Smoke System\4. MIDO\DST-MIDO-ALMDDS-JST_v1.4_3224\Debug\Obj\switch.r90
  PROGRAM MODULE, NAME : switch

  SEGMENTS IN THE MODULE
  ======================
ABSOLUTE
  Segment part 1. TENTATIVE. Used definition from alarm
           ENTRY                   ADDRESS         REF BY
           =====                   =======         ======
           _A_PINB                 
           LOCAL                   ADDRESS         
           =====                   =======         
           PINB                    00000023 
    -------------------------------------------------------------------------
NEAR_Z
  Relative segment, address: DATA 0000029A - 0000029A (0x1 bytes), align: 0
  Segment part 8.             Intra module refs:   Switch_Start_Check
           ENTRY                   ADDRESS         REF BY
           =====                   =======         ======
           Start_Switch_State      0000029A        System_Operation (system_mode)
    -------------------------------------------------------------------------
NEAR_Z
  Relative segment, address: DATA 0000029B - 0000029B (0x1 bytes), align: 0
  Segment part 10.            Intra module refs:   Switch_Start_Check
           ENTRY                   ADDRESS         REF BY
           =====                   =======         ======
           Start_Port_Value        0000029B 
    -------------------------------------------------------------------------
NEAR_Z
  Segment part 11. NOT NEEDED.
           ENTRY                   ADDRESS         REF BY
           =====                   =======         ======
           Switch_Hold_Timer_Reg   
    -------------------------------------------------------------------------
NEAR_Z
  Relative segment, address: DATA 0000029C - 0000029D (0x2 bytes), align: 0
  Segment part 12.            Intra module refs:   Switch_Timer
           ENTRY                   ADDRESS         REF BY
           =====                   =======         ======
           Switch_Hold_Timer_Cnt   0000029C 
    -------------------------------------------------------------------------
CODE
  Relative segment, address: CODE 00001468 - 000014B7 (0x50 bytes), align: 1
  Segment part 13.            Intra module refs:   Switch_Start_Check
           ENTRY                   ADDRESS         REF BY
           =====                   =======         ======
           Switch_Hold_Get_Delay   00001468 
    -------------------------------------------------------------------------
CODE
  Relative segment, address: CODE 000014B8 - 000014D1 (0x1a bytes), align: 1
  Segment part 14.            Intra module refs:   Switch_Timer
           ENTRY                   ADDRESS         REF BY
           =====                   =======         ======
           Switch_Start_Check      000014B8 
               calls direct
    -------------------------------------------------------------------------
CODE
  Relative segment, address: CODE 000014D2 - 00001501 (0x30 bytes), align: 1
  Segment part 15.
           ENTRY                   ADDRESS         REF BY
           =====                   =======         ======
           Switch_Timer            000014D2        timer2_isr1 (module_initialize)
               calls direct
    -------------------------------------------------------------------------
ABSOLUTE
  Segment part 2. TENTATIVE. Used definition from adc
           ENTRY                   ADDRESS         REF BY
           =====                   =======         ======
           __?EECR                 
    -------------------------------------------------------------------------
ABSOLUTE
  Segment part 3. TENTATIVE. Used definition from adc
           ENTRY                   ADDRESS         REF BY
           =====                   =======         ======
           __?EEDR                 
    -------------------------------------------------------------------------
ABSOLUTE
  Segment part 4. TENTATIVE. Used definition from adc
           ENTRY                   ADDRESS         REF BY
           =====                   =======         ======
           __?EEARL                
    -------------------------------------------------------------------------
ABSOLUTE
  Segment part 5. TENTATIVE. Used definition from adc
           ENTRY                   ADDRESS         REF BY
           =====                   =======         ======
           __?EEARH                
    -------------------------------------------------------------------------
CSTACK
  Segment part 6. NOT NEEDED.
    -------------------------------------------------------------------------
RSTACK
  Segment part 7. NOT NEEDED.
    -------------------------------------------------------------------------
INITTAB
  Segment part 9. TENTATIVE. Used definition from adc
           ENTRY                   ADDRESS         REF BY
           =====                   =======         ======
           ?<Segment init: NEAR_Z>
                                   

    *************************************************************************

  FILE NAME : C:\Users\troub\CloudStation\Github\GitHub_DST\1. Remove Smoke System\4. MIDO\DST-MIDO-ALMDDS-JST_v1.4_3224\Debug\Obj\system_mode.r90
  PROGRAM MODULE, NAME : system_mode

  SEGMENTS IN THE MODULE
  ======================
EEPROM_N
  Segment part 7. NOT NEEDED.
           ENTRY                   ADDRESS         REF BY
           =====                   =======         ======
           EEP_Zero_ADC_Point      
    -------------------------------------------------------------------------
EEPROM_N
  Segment part 8. NOT NEEDED.
           ENTRY                   ADDRESS         REF BY
           =====                   =======         ======
           EEP_Span_ADC_Point      
    -------------------------------------------------------------------------
NEAR_Z
  Relative segment, address: DATA 0000029E - 0000029E (0x1 bytes), align: 0
  Segment part 9.             Intra module refs:   System_Operation
           ENTRY                   ADDRESS         REF BY
           =====                   =======         ======
           System_Mode             0000029E        Fnd_Display (fnd_display)
                                                   Fnd_Display_Timer (fnd_display)
                                                   Motor_Get_Pressure_Status (motor)
                                                   Motor_Timer (motor)
                                                   Usart_Operation (usart)
    -------------------------------------------------------------------------
CODE
  Relative segment, address: CODE 00001502 - 00001513 (0x12 bytes), align: 1
  Segment part 21.
           ENTRY                   ADDRESS         REF BY
           =====                   =======         ======
           RD_EEP_Value            00001502        main (main)
               calls direct
    -------------------------------------------------------------------------
NEAR_Z
  Relative segment, address: DATA 0000029F - 0000029F (0x1 bytes), align: 0
  Segment part 11.            Intra module refs:   System_Initialize_Timer
                                                   System_Operation
           ENTRY                   ADDRESS         REF BY
           =====                   =======         ======
           System_Initialize_Timer_Reg
                                   0000029F 
    -------------------------------------------------------------------------
NEAR_Z
  Relative segment, address: DATA 000002A0 - 000002A1 (0x2 bytes), align: 0
  Segment part 12.            Intra module refs:   System_Initialize_Timer
           ENTRY                   ADDRESS         REF BY
           =====                   =======         ======
           System_Initialize_Timer_Cnt
                                   000002A0 
    -------------------------------------------------------------------------
CODE
  Relative segment, address: CODE 00001514 - 0000154F (0x3c bytes), align: 1
  Segment part 22.
           ENTRY                   ADDRESS         REF BY
           =====                   =======         ======
           System_Initialize_Timer
                                   00001514        timer2_isr1 (module_initialize)
    -------------------------------------------------------------------------
CODE
  Relative segment, address: CODE 00001550 - 00001575 (0x26 bytes), align: 1
  Segment part 23.            Intra module refs:   System_Operation
           ENTRY                   ADDRESS         REF BY
           =====                   =======         ======
           System_Auto_Zero_Function
                                   00001550 
               calls direct
    -------------------------------------------------------------------------
NEAR_Z
  Relative segment, address: DATA 000002A2 - 000002A2 (0x1 bytes), align: 0
  Segment part 13.            Intra module refs:   Sys_AZ_Delay_Timer
                                                   Sys_AZ_Delay_Timer_Start
                                                   System_Operation
           ENTRY                   ADDRESS         REF BY
           =====                   =======         ======
           Sys_AZ_Delay_Timer_Reg
                                   000002A2 
    -------------------------------------------------------------------------
NEAR_Z
  Relative segment, address: DATA 000002A3 - 000002A3 (0x1 bytes), align: 0
  Segment part 14.            Intra module refs:   Sys_AZ_Delay_Timer
                                                   Sys_AZ_Delay_Timer_Start
           ENTRY                   ADDRESS         REF BY
           =====                   =======         ======
           Sys_AZ_1S_Timer_Cnt     000002A3 
    -------------------------------------------------------------------------
NEAR_Z
  Relative segment, address: DATA 000002A4 - 000002A5 (0x2 bytes), align: 0
  Segment part 15.            Intra module refs:   Sys_AZ_Delay_Timer
                                                   Sys_AZ_Delay_Timer_Start
           ENTRY                   ADDRESS         REF BY
           =====                   =======         ======
           Sys_AZ_Delay_Timer_Cnt
                                   000002A4 
    -------------------------------------------------------------------------
NEAR_Z
  Relative segment, address: DATA 000002A6 - 000002A6 (0x1 bytes), align: 0
  Segment part 16.            Intra module refs:   System_Operation
           ENTRY                   ADDRESS         REF BY
           =====                   =======         ======
           Sys_Run_Access_Enable   000002A6 
    -------------------------------------------------------------------------
CODE
  Segment part 24. NOT NEEDED.
           ENTRY                   ADDRESS         REF BY
           =====                   =======         ======
           Sys_AZ_Delay_Timer_Stop
                                   
    -------------------------------------------------------------------------
CODE
  Relative segment, address: CODE 00001576 - 0000158F (0x1a bytes), align: 1
  Segment part 25.            Intra module refs:   System_Operation
           ENTRY                   ADDRESS         REF BY
           =====                   =======         ======
           Sys_AZ_Delay_Timer_Start
                                   00001576 
    -------------------------------------------------------------------------
CODE
  Relative segment, address: CODE 00001590 - 000015E3 (0x54 bytes), align: 1
  Segment part 26.
           ENTRY                   ADDRESS         REF BY
           =====                   =======         ======
           Sys_AZ_Delay_Timer      00001590        timer2_isr1 (module_initialize)
    -------------------------------------------------------------------------
CODE
  Relative segment, address: CODE 000015E4 - 0000161B (0x38 bytes), align: 1
  Segment part 27.            Intra module refs:   System_Operation
           ENTRY                   ADDRESS         REF BY
           =====                   =======         ======
           System_Interval_Auto_Zero_Function
                                   000015E4 
               calls direct
    -------------------------------------------------------------------------
NEAR_Z
  Relative segment, address: DATA 000002A7 - 000002A7 (0x1 bytes), align: 0
  Segment part 17.            Intra module refs:   Sys_AZ_Interval_Timer
                                                   Sys_AZ_Interval_Timer_Start
                                                   Sys_AZ_Interval_Timer_Stop
                                                   System_Operation
           ENTRY                   ADDRESS         REF BY
           =====                   =======         ======
           Sys_AZ_Interval_Timer_Reg
                                   000002A7 
    -------------------------------------------------------------------------
NEAR_Z
  Relative segment, address: DATA 000002A8 - 000002A9 (0x2 bytes), align: 0
  Segment part 18.            Intra module refs:   Sys_AZ_Interval_Timer
                                                   Sys_AZ_Interval_Timer_Start
                                                   Sys_AZ_Interval_Timer_Stop
           ENTRY                   ADDRESS         REF BY
           =====                   =======         ======
           Sys_AZ_Interval_1S_Timer_Cnt
                                   000002A8 
    -------------------------------------------------------------------------
NEAR_Z
  Relative segment, address: DATA 000002AA - 000002AB (0x2 bytes), align: 0
  Segment part 19.            Intra module refs:   Sys_AZ_Interval_Timer
                                                   Sys_AZ_Interval_Timer_Start
                                                   Sys_AZ_Interval_Timer_Stop
           ENTRY                   ADDRESS         REF BY
           =====                   =======         ======
           Sys_AZ_Interval_Timer_Cnt
                                   000002AA 
    -------------------------------------------------------------------------
NEAR_Z
  Relative segment, address: DATA 000002AC - 000002AC (0x1 bytes), align: 0
  Segment part 20.            Intra module refs:   Sys_AZ_Interval_Timer
                                                   System_Operation
           ENTRY                   ADDRESS         REF BY
           =====                   =======         ======
           Sys_AZ_Interval_Flag    000002AC 
    -------------------------------------------------------------------------
CODE
  Relative segment, address: CODE 0000161C - 0000163B (0x20 bytes), align: 1
  Segment part 28.            Intra module refs:   System_Operation
           ENTRY                   ADDRESS         REF BY
           =====                   =======         ======
           Sys_AZ_Interval_Timer_Stop
                                   0000161C 
    -------------------------------------------------------------------------
CODE
  Relative segment, address: CODE 0000163C - 0000165B (0x20 bytes), align: 1
  Segment part 29.            Intra module refs:   Sys_AZ_Interval_Timer
           ENTRY                   ADDRESS         REF BY
           =====                   =======         ======
           Sys_AZ_Interval_Timer_Start
                                   0000163C 
    -------------------------------------------------------------------------
CODE
  Relative segment, address: CODE 0000165C - 000016C5 (0x6a bytes), align: 1
  Segment part 30.
           ENTRY                   ADDRESS         REF BY
           =====                   =======         ======
           Sys_AZ_Interval_Timer   0000165C        timer2_isr1 (module_initialize)
               calls direct
    -------------------------------------------------------------------------
CODE
  Relative segment, address: CODE 000016C6 - 0000171D (0x58 bytes), align: 1
  Segment part 31.
           ENTRY                   ADDRESS         REF BY
           =====                   =======         ======
           System_Operation        000016C6        main (main)
               calls direct
    -------------------------------------------------------------------------
ABSOLUTE
  Segment part 1. TENTATIVE. Used definition from adc
           ENTRY                   ADDRESS         REF BY
           =====                   =======         ======
           __?EECR                 
    -------------------------------------------------------------------------
ABSOLUTE
  Segment part 2. TENTATIVE. Used definition from adc
           ENTRY                   ADDRESS         REF BY
           =====                   =======         ======
           __?EEDR                 
    -------------------------------------------------------------------------
ABSOLUTE
  Segment part 3. TENTATIVE. Used definition from adc
           ENTRY                   ADDRESS         REF BY
           =====                   =======         ======
           __?EEARL                
    -------------------------------------------------------------------------
ABSOLUTE
  Segment part 4. TENTATIVE. Used definition from adc
           ENTRY                   ADDRESS         REF BY
           =====                   =======         ======
           __?EEARH                
    -------------------------------------------------------------------------
CSTACK
  Segment part 5. NOT NEEDED.
    -------------------------------------------------------------------------
RSTACK
  Segment part 6. NOT NEEDED.
    -------------------------------------------------------------------------
INITTAB
  Segment part 10. TENTATIVE. Used definition from adc
           ENTRY                   ADDRESS         REF BY
           =====                   =======         ======
           ?<Segment init: NEAR_Z>
                                   

    *************************************************************************

  FILE NAME : C:\Users\troub\CloudStation\Github\GitHub_DST\1. Remove Smoke System\4. MIDO\DST-MIDO-ALMDDS-JST_v1.4_3224\Debug\Obj\type_conversion_util.r90
  PROGRAM MODULE, NAME : type_conversion_util

  SEGMENTS IN THE MODULE
  ======================
CODE
  Segment part 7. NOT NEEDED.
           ENTRY                   ADDRESS         REF BY
           =====                   =======         ======
           Trans_Int_to_Char_HighByte
                                   
    -------------------------------------------------------------------------
CODE
  Segment part 8. NOT NEEDED.
           ENTRY                   ADDRESS         REF BY
           =====                   =======         ======
           Trans_Int_to_Char_LowByte
                                   
    -------------------------------------------------------------------------
CODE
  Segment part 9. NOT NEEDED.
           ENTRY                   ADDRESS         REF BY
           =====                   =======         ======
           Trans_Char_to_Int       
    -------------------------------------------------------------------------
CODE
  Segment part 10. NOT NEEDED.
           ENTRY                   ADDRESS         REF BY
           =====                   =======         ======
           Trans_Scale_Cal_Value   
               calls direct
    -------------------------------------------------------------------------
ABSOLUTE
  Segment part 1. TENTATIVE. Used definition from adc
           ENTRY                   ADDRESS         REF BY
           =====                   =======         ======
           __?EECR                 
    -------------------------------------------------------------------------
ABSOLUTE
  Segment part 2. TENTATIVE. Used definition from adc
           ENTRY                   ADDRESS         REF BY
           =====                   =======         ======
           __?EEDR                 
    -------------------------------------------------------------------------
ABSOLUTE
  Segment part 3. TENTATIVE. Used definition from adc
           ENTRY                   ADDRESS         REF BY
           =====                   =======         ======
           __?EEARL                
    -------------------------------------------------------------------------
ABSOLUTE
  Segment part 4. TENTATIVE. Used definition from adc
           ENTRY                   ADDRESS         REF BY
           =====                   =======         ======
           __?EEARH                
    -------------------------------------------------------------------------
CSTACK
  Segment part 5. NOT NEEDED.
    -------------------------------------------------------------------------
RSTACK
  Segment part 6. NOT NEEDED.

    *************************************************************************

  FILE NAME : C:\Users\troub\CloudStation\Github\GitHub_DST\1. Remove Smoke System\4. MIDO\DST-MIDO-ALMDDS-JST_v1.4_3224\Debug\Obj\usart.r90
  PROGRAM MODULE, NAME : usart

  SEGMENTS IN THE MODULE
  ======================
ABSOLUTE
  Relative segment, address: DATA 000000C6 - 000000C6 (0x1 bytes), align: 0
  Segment part 1. ROOT        Intra module refs:   USART_TX_VECT
                                                   Usart_Send_Start_Byte
           ENTRY                   ADDRESS         REF BY
           =====                   =======         ======
           _A_UDR0                 000000C6 
           LOCAL                   ADDRESS         
           =====                   =======         
           UDR0                    000000C6 
    -------------------------------------------------------------------------
ABSOLUTE
  Relative segment, address: DATA 000000C4 - 000000C5 (0x2 bytes), align: 0
  Segment part 2. ROOT        Intra module refs:   Uasrt_Initialize
           ENTRY                   ADDRESS         REF BY
           =====                   =======         ======
           _A_UBRR0                000000C4 
           LOCAL                   ADDRESS         
           =====                   =======         
           UBRR0                   000000C4 
           UBRR0H                  000000C5 
           UBRR0L                  000000C4 
    -------------------------------------------------------------------------
ABSOLUTE
  Relative segment, address: DATA 000000C2 - 000000C2 (0x1 bytes), align: 0
  Segment part 3. ROOT        Intra module refs:   Uasrt_Initialize
           ENTRY                   ADDRESS         REF BY
           =====                   =======         ======
           _A_UCSR0C               000000C2 
           LOCAL                   ADDRESS         
           =====                   =======         
           UCSR0C                  000000C2 
    -------------------------------------------------------------------------
ABSOLUTE
  Relative segment, address: DATA 000000C1 - 000000C1 (0x1 bytes), align: 0
  Segment part 4. ROOT        Intra module refs:   Uasrt_Initialize
           ENTRY                   ADDRESS         REF BY
           =====                   =======         ======
           _A_UCSR0B               000000C1 
           LOCAL                   ADDRESS         
           =====                   =======         
           UCSR0B                  000000C1 
    -------------------------------------------------------------------------
ABSOLUTE
  Relative segment, address: DATA 000000C0 - 000000C0 (0x1 bytes), align: 0
  Segment part 5. ROOT        Intra module refs:   Uasrt_Initialize
                                                   Usart_Send_Start_Byte
           ENTRY                   ADDRESS         REF BY
           =====                   =======         ======
           _A_UCSR0A               000000C0 
           LOCAL                   ADDRESS         
           =====                   =======         
           UCSR0A                  000000C0 
    -------------------------------------------------------------------------
NEAR_Z
  Relative segment, address: DATA 000002AD - 000002AD (0x1 bytes), align: 0
  Segment part 14.            Intra module refs:   USART_TX_VECT
                                                   Uasrt_Initialize
           ENTRY                   ADDRESS         REF BY
           =====                   =======         ======
           USART_Mode              000002AD 
    -------------------------------------------------------------------------
NEAR_Z
  Segment part 16. NOT NEEDED.
           ENTRY                   ADDRESS         REF BY
           =====                   =======         ======
           USART_Rxc_Complete_Flag
                                   
    -------------------------------------------------------------------------
NEAR_Z
  Relative segment, address: DATA 000002AE - 000002AE (0x1 bytes), align: 0
  Segment part 17.            Intra module refs:   USART_TX_VECT
           ENTRY                   ADDRESS         REF BY
           =====                   =======         ======
           USART_Txc_Complete_Flag
                                   000002AE 
    -------------------------------------------------------------------------
NEAR_Z
  Segment part 18. NOT NEEDED.
           ENTRY                   ADDRESS         REF BY
           =====                   =======         ======
           USART_Check_Flag        
    -------------------------------------------------------------------------
NEAR_Z
  Segment part 19. NOT NEEDED.
           ENTRY                   ADDRESS         REF BY
           =====                   =======         ======
           USART_Txc_Buf           
    -------------------------------------------------------------------------
NEAR_Z
  Segment part 20. NOT NEEDED.
           ENTRY                   ADDRESS         REF BY
           =====                   =======         ======
           USART_Txc_Cnt           
    -------------------------------------------------------------------------
NEAR_Z
  Segment part 21. NOT NEEDED.
           ENTRY                   ADDRESS         REF BY
           =====                   =======         ======
           USART_Rxc_Buf           
    -------------------------------------------------------------------------
NEAR_Z
  Segment part 22. NOT NEEDED.
           ENTRY                   ADDRESS         REF BY
           =====                   =======         ======
           USART_Rxc_Cnt           
    -------------------------------------------------------------------------
NEAR_Z
  Segment part 23. NOT NEEDED.
           ENTRY                   ADDRESS         REF BY
           =====                   =======         ======
           USART_Order             
    -------------------------------------------------------------------------
NEAR_Z
  Segment part 24. NOT NEEDED.
           ENTRY                   ADDRESS         REF BY
           =====                   =======         ======
           USART_Data              
    -------------------------------------------------------------------------
NEAR_Z
  Segment part 25. NOT NEEDED.
           ENTRY                   ADDRESS         REF BY
           =====                   =======         ======
           USART_Txd_Start_Flag    
    -------------------------------------------------------------------------
NEAR_Z
  Relative segment, address: DATA 000002AF - 000002D1 (0x23 bytes), align: 0
  Segment part 26.            Intra module refs:   USART_TX_VECT
                                                   Usart_Timer
           ENTRY                   ADDRESS         REF BY
           =====                   =======         ======
           USART_STRUCT            000002AF 
    -------------------------------------------------------------------------
NEAR_I
  Relative segment, address: DATA 00000226 - 0000022F (0xa bytes), align: 0
  Segment part 27.            Intra module refs:   Usart_Operation
                                                   Usart_Timer
           ENTRY                   ADDRESS         REF BY
           =====                   =======         ======
           Usart_Txd_Buf           00000226 
    -------------------------------------------------------------------------
NEAR_Z
  Segment part 30. NOT NEEDED.
           ENTRY                   ADDRESS         REF BY
           =====                   =======         ======
           Usart_Txd_Cnt           
    -------------------------------------------------------------------------
CODE
  Relative segment, address: CODE 0000171E - 0000172B (0xe bytes), align: 1
  Segment part 35.            Intra module refs:   USART_RX_VECT::??INTVEC 72
           ENTRY                   ADDRESS         REF BY
           =====                   =======         ======
           USART_RX_VECT           0000171E 
               interrupt function
    -------------------------------------------------------------------------
CODE
  Relative segment, address: CODE 0000172C - 0000177B (0x50 bytes), align: 1
  Segment part 36.            Intra module refs:   USART_TX_VECT::??INTVEC 80
           ENTRY                   ADDRESS         REF BY
           =====                   =======         ======
           USART_TX_VECT           0000172C 
               interrupt function
    -------------------------------------------------------------------------
CODE
  Segment part 37. NOT NEEDED.
           ENTRY                   ADDRESS         REF BY
           =====                   =======         ======
           Usart_Reg_Initialize    
    -------------------------------------------------------------------------
CODE
  Relative segment, address: CODE 0000177C - 0000178B (0x10 bytes), align: 1
  Segment part 38.            Intra module refs:   Usart_Timer
           ENTRY                   ADDRESS         REF BY
           =====                   =======         ======
           Usart_Send_Start_Byte   0000177C 
    -------------------------------------------------------------------------
NEAR_Z
  Segment part 31. NOT NEEDED.
           ENTRY                   ADDRESS         REF BY
           =====                   =======         ======
           Usart_Transaction_Delay_Timer_Reg
                                   
    -------------------------------------------------------------------------
NEAR_Z
  Segment part 32. NOT NEEDED.
           ENTRY                   ADDRESS         REF BY
           =====                   =======         ======
           Usart_Transaction_Delay_Timer_Cnt
                                   
    -------------------------------------------------------------------------
CODE
  Segment part 39. NOT NEEDED.
           ENTRY                   ADDRESS         REF BY
           =====                   =======         ======
           Usart_Transaction_Delay_Timer
                                   
    -------------------------------------------------------------------------
NEAR_Z
  Relative segment, address: DATA 000002D2 - 000002D2 (0x1 bytes), align: 0
  Segment part 33.            Intra module refs:   Uasrt_Initialize
                                                   Usart_Timer
           ENTRY                   ADDRESS         REF BY
           =====                   =======         ======
           Usart_Delay_Timer_Reg   000002D2 
    -------------------------------------------------------------------------
NEAR_Z
  Relative segment, address: DATA 000002D3 - 000002D4 (0x2 bytes), align: 0
  Segment part 34.            Intra module refs:   Usart_Timer
           ENTRY                   ADDRESS         REF BY
           =====                   =======         ======
           Usart_Delay_Timer_Cnt   000002D3 
    -------------------------------------------------------------------------
CODE
  Relative segment, address: CODE 0000178C - 000017F9 (0x6e bytes), align: 1
  Segment part 40.
           ENTRY                   ADDRESS         REF BY
           =====                   =======         ======
           Usart_Timer             0000178C        timer2_isr2 (module_initialize)
               calls direct
    -------------------------------------------------------------------------
CODE
  Relative segment, address: CODE 000017FA - 0000185D (0x64 bytes), align: 1
  Segment part 41.
           ENTRY                   ADDRESS         REF BY
           =====                   =======         ======
           Usart_Operation         000017FA        main (main)
    -------------------------------------------------------------------------
CODE
  Relative segment, address: CODE 0000185E - 0000188D (0x30 bytes), align: 1
  Segment part 42.
           ENTRY                   ADDRESS         REF BY
           =====                   =======         ======
           Uasrt_Initialize        0000185E        main (main)
    -------------------------------------------------------------------------
ABSOLUTE
  Segment part 6. TENTATIVE. Used definition from adc
           ENTRY                   ADDRESS         REF BY
           =====                   =======         ======
           __?EECR                 
    -------------------------------------------------------------------------
ABSOLUTE
  Segment part 7. TENTATIVE. Used definition from adc
           ENTRY                   ADDRESS         REF BY
           =====                   =======         ======
           __?EEDR                 
    -------------------------------------------------------------------------
ABSOLUTE
  Segment part 8. TENTATIVE. Used definition from adc
           ENTRY                   ADDRESS         REF BY
           =====                   =======         ======
           __?EEARL                
    -------------------------------------------------------------------------
ABSOLUTE
  Segment part 9. TENTATIVE. Used definition from adc
           ENTRY                   ADDRESS         REF BY
           =====                   =======         ======
           __?EEARH                
    -------------------------------------------------------------------------
INTVEC
  Common segment, address: CODE 00000000 - 0000004B (0x4c bytes), align: 1
  Segment part 10. ROOT 
           ENTRY                   ADDRESS         REF BY
           =====                   =======         ======
           USART_RX_VECT::??INTVEC 72
                                   00000048 
    -------------------------------------------------------------------------
INTVEC
  Common segment, address: CODE 00000000 - 00000053 (0x54 bytes), align: 1
  Segment part 11. ROOT 
           ENTRY                   ADDRESS         REF BY
           =====                   =======         ======
           USART_TX_VECT::??INTVEC 80
                                   00000050 
    -------------------------------------------------------------------------
CSTACK
  Segment part 12. NOT NEEDED.
    -------------------------------------------------------------------------
RSTACK
  Segment part 13. NOT NEEDED.
    -------------------------------------------------------------------------
INITTAB
  Segment part 15. TENTATIVE. Used definition from adc
           ENTRY                   ADDRESS         REF BY
           =====                   =======         ======
           ?<Segment init: NEAR_Z>
                                   
    -------------------------------------------------------------------------
NEAR_ID
  Relative segment, address: CODE 00001E4A - 00001E53 (0xa bytes), align: 0
  Segment part 28.            Intra module refs:   Usart_Txd_Buf
    -------------------------------------------------------------------------
INITTAB
  Segment part 29. TENTATIVE. Used definition from avr_twi_master_driver
           ENTRY                   ADDRESS         REF BY
           =====                   =======         ======
           ?<Segment init: NEAR_I>
                                   

    *************************************************************************

  FILE NAME : C:\Program Files (x86)\IAR Systems\Embedded Workbench 8.0\avr\LIB\DLIB\dlAVR-3s-ec_mul-sf-n.r90
  LIBRARY MODULE, NAME : ?_exit

  SEGMENTS IN THE MODULE
  ======================
CODE
  Relative segment, address: CODE 0000188E, align: 1
  Segment part 0.
           ENTRY                   ADDRESS         REF BY
           =====                   =======         ======
           _exit                   0000188E        ?cstartup_call_main (?C_STARTUP)
                                                   exit (?exit)
    -------------------------------------------------------------------------
CODE
  Segment part 1. NOT NEEDED.
    -------------------------------------------------------------------------
CODE
  Segment part 2. NOT NEEDED.
           ENTRY                   ADDRESS         REF BY
           =====                   =======         ======
           __cstart_call_dtors     
    -------------------------------------------------------------------------
CODE
  Segment part 3. NOT NEEDED.
           ENTRY                   ADDRESS         REF BY
           =====                   =======         ======
           __cstart_closeall       
    -------------------------------------------------------------------------
CODE
  Segment part 4. NOT NEEDED.
    -------------------------------------------------------------------------
CODE
  Relative segment, address: CODE 0000188E - 00001891 (0x4 bytes), align: 1
  Segment part 5.             Intra module refs:   _exit

    -------------------------------------------------------------------------
  LIBRARY MODULE, NAME : ?abort

  SEGMENTS IN THE MODULE
  ======================
CODE
  Segment part 3. NOT NEEDED.
           ENTRY                   ADDRESS         REF BY
           =====                   =======         ======
           abort                   
               calls direct
    -------------------------------------------------------------------------
CSTACK
  Segment part 1. NOT NEEDED.
    -------------------------------------------------------------------------
RSTACK
  Segment part 2. NOT NEEDED.

    -------------------------------------------------------------------------
  LIBRARY MODULE, NAME : ?abs

  SEGMENTS IN THE MODULE
  ======================
CODE
  Relative segment, address: CODE 00001892 - 0000189D (0xc bytes), align: 1
  Segment part 3.
           ENTRY                   ADDRESS         REF BY
           =====                   =======         ======
           abs                     00001892        FND_NUMtoCHAR_Transfer (fnd_display)
                                                   Fnd_Display (fnd_display)
                                                   System_Interval_Auto_Zero_Function (system_mode)
    -------------------------------------------------------------------------
CSTACK
  Segment part 1. NOT NEEDED.
    -------------------------------------------------------------------------
RSTACK
  Segment part 2. NOT NEEDED.

    -------------------------------------------------------------------------
  LIBRARY MODULE, NAME : ?cppinit

  SEGMENTS IN THE MODULE
  ======================
CODE
  Segment part 5. NOT NEEDED.
           ENTRY                   ADDRESS         REF BY
           =====                   =======         ======
           __call_ctors            
               calls indirect
    -------------------------------------------------------------------------
NEAR_Z
  Segment part 3. NOT NEEDED.
    -------------------------------------------------------------------------
CODE
  Segment part 6. NOT NEEDED.
           ENTRY                   ADDRESS         REF BY
           =====                   =======         ======
           __record_needed_destruction
                                   
               calls direct
    -------------------------------------------------------------------------
CODE
  Segment part 7. NOT NEEDED.
    -------------------------------------------------------------------------
CODE
  Segment part 8. NOT NEEDED.
           ENTRY                   ADDRESS         REF BY
           =====                   =======         ======
           __alloc_record_needed_destruction
                                   
               calls direct
    -------------------------------------------------------------------------
CODE
  Segment part 9. NOT NEEDED.
           ENTRY                   ADDRESS         REF BY
           =====                   =======         ======
           __call_dtors            
               calls indirect
    -------------------------------------------------------------------------
CODE
  Segment part 10. NOT NEEDED.
    -------------------------------------------------------------------------
CODE
  Segment part 11. NOT NEEDED.
           ENTRY                   ADDRESS         REF BY
           =====                   =======         ======
           __tiny_vec_cctor        
               calls indirect
    -------------------------------------------------------------------------
CODE
  Segment part 12. NOT NEEDED.
           ENTRY                   ADDRESS         REF BY
           =====                   =======         ======
           __near_vec_cctor        
               calls indirect
    -------------------------------------------------------------------------
CSTACK
  Segment part 1. NOT NEEDED.
    -------------------------------------------------------------------------
RSTACK
  Segment part 2. NOT NEEDED.
    -------------------------------------------------------------------------
INITTAB
  Segment part 4. TENTATIVE. Used definition from adc
           ENTRY                   ADDRESS         REF BY
           =====                   =======         ======
           ?<Segment init: NEAR_Z>
                                   

    -------------------------------------------------------------------------
  LIBRARY MODULE, NAME : ?RESET

  SEGMENTS IN THE MODULE
  ======================
INTVEC
  Common segment, address: CODE 00000000 - 00000003 (0x4 bytes), align: 1
  Segment part 0. ROOT 
           ENTRY                   ADDRESS         REF BY
           =====                   =======         ======
           ?RESET                  00000000        Segment part 2 (?C_STARTUP)

    -------------------------------------------------------------------------
  LIBRARY MODULE, NAME : ?C_STARTUP

  SEGMENTS IN THE MODULE
  ======================
CSTACK
  Segment part 0. NOT NEEDED.
    -------------------------------------------------------------------------
RSTACK
  Segment part 1. NOT NEEDED.
    -------------------------------------------------------------------------
CODE
  Relative segment, address: CODE 0000189E, align: 1
  Segment part 2.
           ENTRY                   ADDRESS         REF BY
           =====                   =======         ======
           __program_start         0000189E        Absolute parts (?ABS_ENTRY_MOD)
           ?C_STARTUP              0000189E        ?RESET (?RESET)
           __RESTART               0000189E 
    -------------------------------------------------------------------------
CODE
  Segment part 3. NOT NEEDED.
           ENTRY                   ADDRESS         REF BY
           =====                   =======         ======
           __RSTACK_in_external_ram
                                   
    -------------------------------------------------------------------------
CODE
  Segment part 4. NOT NEEDED.
           ENTRY                   ADDRESS         REF BY
           =====                   =======         ======
           __RSTACK_in_external_ram_new_way
                                   
    -------------------------------------------------------------------------
CODE
  Relative segment, address: CODE 0000189E - 000018A9 (0xc bytes), align: 1
  Segment part 5.             Intra module refs:   Segment part 2
    -------------------------------------------------------------------------
CODE
  Segment part 6. NOT NEEDED.
           ENTRY                   ADDRESS         REF BY
           =====                   =======         ======
           ?zero_reg_initialization
                                   
    -------------------------------------------------------------------------
CODE
  Relative segment, address: CODE 000018AA - 000018AD (0x4 bytes), align: 1
  Segment part 7.             Intra module refs:   Segment part 5
           ENTRY                   ADDRESS         REF BY
           =====                   =======         ======
           ?call_low_level_init    000018AA 
    -------------------------------------------------------------------------
CODE
  Relative segment, address: CODE 000018AE - 000018B5 (0x8 bytes), align: 1
  Segment part 8.
           ENTRY                   ADDRESS         REF BY
           =====                   =======         ======
           ?need_segment_init      000018AE        ?<Segment init: NEAR_I> (avr_twi_master_driver)
                                                   ?<Segment init: NEAR_Z> (adc)
    -------------------------------------------------------------------------
DIFUNCT
  Segment part 9. NOT NEEDED.
    -------------------------------------------------------------------------
CODE
  Segment part 10. NOT NEEDED.
           ENTRY                   ADDRESS         REF BY
           =====                   =======         ======
           ?call_ctors             
    -------------------------------------------------------------------------
CODE
  Relative segment, address: CODE 000018B6 - 000018C1 (0xc bytes), align: 1
  Segment part 11.            Intra module refs:   ?call_low_level_init
           ENTRY                   ADDRESS         REF BY
           =====                   =======         ======
           ?cstartup_call_main     000018B6 

    -------------------------------------------------------------------------
  LIBRARY MODULE, NAME : ?EEPROM_16

  SEGMENTS IN THE MODULE
  ======================
CODE
  Relative segment, address: CODE 000018C2 - 000018C7 (0x6 bytes), align: 1
  Segment part 0.             Intra module refs:   ?eeget16
                                                   __eeput16_16
           LOCAL                   ADDRESS         
           =====                   =======         
           ?eewait                 000018C2 
    -------------------------------------------------------------------------
CODE
  Relative segment, address: CODE 000018C8 - 000018CB (0x4 bytes), align: 1
  Segment part 1.             Intra module refs:   __eeget16_16
           LOCAL                   ADDRESS         
           =====                   =======         
           ?eeget16_inc            000018C8 
    -------------------------------------------------------------------------
CODE
  Relative segment, address: CODE 000018CC - 000018D5 (0xa bytes), align: 1
  Segment part 2.             Intra module refs:   ?eeget16_inc
                                                   __eeget16_16
           LOCAL                   ADDRESS         
           =====                   =======         
           ?eeget16                000018CC 
    -------------------------------------------------------------------------
CODE
  Segment part 3. NOT NEEDED.
    -------------------------------------------------------------------------
CODE
  Segment part 4. NOT NEEDED.
    -------------------------------------------------------------------------
CODE
  Segment part 5. NOT NEEDED.
           ENTRY                   ADDRESS         REF BY
           =====                   =======         ======
           __eeget8_16             
    -------------------------------------------------------------------------
CODE
  Relative segment, address: CODE 000018D6 - 000018DF (0xa bytes), align: 1
  Segment part 6.
           ENTRY                   ADDRESS         REF BY
           =====                   =======         ======
           __eeget16_16            000018D6        RD_EEP_Value (system_mode)
    -------------------------------------------------------------------------
CODE
  Segment part 7. NOT NEEDED.
           ENTRY                   ADDRESS         REF BY
           =====                   =======         ======
           __eeget24_16            
    -------------------------------------------------------------------------
CODE
  Segment part 8. NOT NEEDED.
           ENTRY                   ADDRESS         REF BY
           =====                   =======         ======
           __eeget32_16            
    -------------------------------------------------------------------------
CODE
  Segment part 9. NOT NEEDED.
           ENTRY                   ADDRESS         REF BY
           =====                   =======         ======
           __eeget64_16            
    -------------------------------------------------------------------------
CODE
  Relative segment, address: CODE 000018E0 - 000018E3 (0x4 bytes), align: 1
  Segment part 10.            Intra module refs:   __eeput16_16
           LOCAL                   ADDRESS         
           =====                   =======         
           ?eeput16_inc            000018E0 
    -------------------------------------------------------------------------
CODE
  Relative segment, address: CODE 000018E4 - 000018F1 (0xe bytes), align: 1
  Segment part 11.            Intra module refs:   ?eeput16_inc
                                                   __eeput16_16
           LOCAL                   ADDRESS         
           =====                   =======         
           ?eeput16                000018E4 
    -------------------------------------------------------------------------
CODE
  Segment part 12. NOT NEEDED.
    -------------------------------------------------------------------------
CODE
  Segment part 13. NOT NEEDED.
    -------------------------------------------------------------------------
CODE
  Segment part 14. NOT NEEDED.
           ENTRY                   ADDRESS         REF BY
           =====                   =======         ======
           __eeput8_16             
    -------------------------------------------------------------------------
CODE
  Relative segment, address: CODE 000018F2 - 000018FF (0xe bytes), align: 1
  Segment part 15.
           ENTRY                   ADDRESS         REF BY
           =====                   =======         ======
           __eeput16_16            000018F2        ADC_Auto_Zero_Process (adc)
                                                   System_Auto_Zero_Function (system_mode)
                                                   System_Interval_Auto_Zero_Function (system_mode)
    -------------------------------------------------------------------------
CODE
  Segment part 16. NOT NEEDED.
           ENTRY                   ADDRESS         REF BY
           =====                   =======         ======
           __eeput24_16            
    -------------------------------------------------------------------------
CODE
  Segment part 17. NOT NEEDED.
           ENTRY                   ADDRESS         REF BY
           =====                   =======         ======
           __eeput32_16            
    -------------------------------------------------------------------------
CODE
  Segment part 18. NOT NEEDED.
           ENTRY                   ADDRESS         REF BY
           =====                   =======         ======
           __eeput64_16            

    -------------------------------------------------------------------------
  LIBRARY MODULE, NAME : ?exit

  SEGMENTS IN THE MODULE
  ======================
CODE
  Relative segment, address: CODE 00001900 - 00001903 (0x4 bytes), align: 1
  Segment part 3.
           ENTRY                   ADDRESS         REF BY
           =====                   =======         ======
           exit                    00001900        ?cstartup_call_main (?C_STARTUP)
               calls direct
    -------------------------------------------------------------------------
CSTACK
  Segment part 1. NOT NEEDED.
    -------------------------------------------------------------------------
RSTACK
  Segment part 2. NOT NEEDED.

    -------------------------------------------------------------------------
  LIBRARY MODULE, NAME : ?US_DIVMOD_L02

  SEGMENTS IN THE MODULE
  ======================
CODE
  Segment part 0. NOT NEEDED.
           ENTRY                   ADDRESS         REF BY
           =====                   =======         ======
           ?US_DIVMOD_S_L02        
    -------------------------------------------------------------------------
CODE
  Relative segment, address: CODE 00001904 - 00001909 (0x6 bytes), align: 1
  Segment part 1.
           ENTRY                   ADDRESS         REF BY
           =====                   =======         ======
           ?US_DIVMOD_L02          00001904        ?SS_DIVMOD_L02 (?SS_DIVMOD_L02)
                                                   ADC_Get_Standard_Pressure_Value (adc)
    -------------------------------------------------------------------------
CODE
  Segment part 2. NOT NEEDED.
    -------------------------------------------------------------------------
CODE
  Relative segment, address: CODE 0000190A - 00001929 (0x20 bytes), align: 1
  Segment part 3.             Intra module refs:   ?US_DIVMOD_L02

    -------------------------------------------------------------------------
  LIBRARY MODULE, NAME : ?SS_DIVMOD_L02

  SEGMENTS IN THE MODULE
  ======================
CODE
  Segment part 0. NOT NEEDED.
           ENTRY                   ADDRESS         REF BY
           =====                   =======         ======
           ?SS_DIVMOD_S_L02        
    -------------------------------------------------------------------------
CODE
  Relative segment, address: CODE 0000192A - 00001949 (0x20 bytes), align: 1
  Segment part 1.
           ENTRY                   ADDRESS         REF BY
           =====                   =======         ======
           ?SS_DIVMOD_L02          0000192A        FND_NUMtoCHAR_Transfer (fnd_display)
    -------------------------------------------------------------------------
CODE
  Relative segment, address: CODE 0000194A - 00001951 (0x8 bytes), align: 1
  Segment part 2.             Intra module refs:   ?SS_DIVMOD_L02
           LOCAL                   ADDRESS         
           =====                   =======         
           ?NEG_P                  0000194A 
    -------------------------------------------------------------------------
CODE
  Relative segment, address: CODE 00001952 - 00001959 (0x8 bytes), align: 1
  Segment part 3.             Intra module refs:   ?SS_DIVMOD_L02
           LOCAL                   ADDRESS         
           =====                   =======         
           ?NEG_Q                  00001952 

    -------------------------------------------------------------------------
  LIBRARY MODULE, NAME : ?UL_SHR_L03

  SEGMENTS IN THE MODULE
  ======================
CODE
  Relative segment, address: CODE 0000195A - 00001967 (0xe bytes), align: 1
  Segment part 0.
           ENTRY                   ADDRESS         REF BY
           =====                   =======         ======
           ?UL_SHR_L03             00001962        ?SKIP8 (?FLOATS_L04)

    -------------------------------------------------------------------------
  LIBRARY MODULE, NAME : ?UL_DIVMOD_L03

  SEGMENTS IN THE MODULE
  ======================
CODE
  Segment part 0. NOT NEEDED.
           ENTRY                   ADDRESS         REF BY
           =====                   =======         ======
           ?UL_DIVMOD_S_L03        
    -------------------------------------------------------------------------
CODE
  Segment part 1. NOT NEEDED.
           ENTRY                   ADDRESS         REF BY
           =====                   =======         ======
           ?UL_DIVMOD_L03          
    -------------------------------------------------------------------------
CODE
  Segment part 2. NOT NEEDED.
    -------------------------------------------------------------------------
CODE
  Segment part 3. NOT NEEDED.

    -------------------------------------------------------------------------
  LIBRARY MODULE, NAME : ?SL_DIVMOD_L03

  SEGMENTS IN THE MODULE
  ======================
CODE
  Segment part 0. NOT NEEDED.
           ENTRY                   ADDRESS         REF BY
           =====                   =======         ======
           ?SL_DIVMOD_S_L03        
    -------------------------------------------------------------------------
CODE
  Segment part 1. NOT NEEDED.
           ENTRY                   ADDRESS         REF BY
           =====                   =======         ======
           ?SL_DIVMOD_L03          
    -------------------------------------------------------------------------
CODE
  Relative segment, address: CODE 00001968 - 00001977 (0x10 bytes), align: 1
  Segment part 2.
           ENTRY                   ADDRESS         REF BY
           =====                   =======         ======
           ?L_NEG_L03              00001968        ?SKIP8 (?FLOATS_L04)
                                                   ?SL2F_L04 (?FLOATS_L04)
    -------------------------------------------------------------------------
CODE
  Segment part 3. NOT NEEDED.
           ENTRY                   ADDRESS         REF BY
           =====                   =======         ======
           ?L_NEG_Q_L03            

    -------------------------------------------------------------------------
  LIBRARY MODULE, NAME : ?FLOATS_L04

  SEGMENTS IN THE MODULE
  ======================
CODE
  Relative segment, address: CODE 00001978 - 00001987 (0x10 bytes), align: 1
  Segment part 0.             Intra module refs:   ?F_ADD_L04
                                                   ?F_DIV_L04
                                                   ?F_MUL_L04
           ENTRY                   ADDRESS         REF BY
           =====                   =======         ======
           ?F_UNPACK_L04           00001978 
    -------------------------------------------------------------------------
CODE
  Relative segment, address: CODE 00001988 - 00001999 (0x12 bytes), align: 1
  Segment part 1.             Intra module refs:   ?F2SL_L04
                                                   ?F_UNPACK_L04
           ENTRY                   ADDRESS         REF BY
           =====                   =======         ======
           ?F_UNPACK_1_L04         00001988 
    -------------------------------------------------------------------------
CODE
  Relative segment, address: CODE 0000199A - 000019E1 (0x48 bytes), align: 1
  Segment part 2.             Intra module refs:   ?F_ADD_L04
                                                   ?F_DIV_L04
                                                   ?F_MUL_L04
                                                   ?SL2F_2
           ENTRY                   ADDRESS         REF BY
           =====                   =======         ======
           ?F_ROUND_L04            000019AE 
           LOCAL                   ADDRESS         
           =====                   =======         
           ?F_NORMALIZE_L04        0000199A 
    -------------------------------------------------------------------------
CODE
  Segment part 3. NOT NEEDED.
    -------------------------------------------------------------------------
CODE
  Relative segment, address: CODE 000019E2 - 000019E3 (0x2 bytes), align: 1
  Segment part 4.             Intra module refs:   ?F_ROUND_L04
    -------------------------------------------------------------------------
CODE
  Relative segment, address: CODE 000019E4 - 000019ED (0xa bytes), align: 1
  Segment part 5.
           ENTRY                   ADDRESS         REF BY
           =====                   =======         ======
           ?SL2F_L04               000019E4        Twi_Adc_Cal_Real_Value (ps-33d)
                                                   Twi_Adc_Push_Coef (ps-33d)
    -------------------------------------------------------------------------
CODE
  Relative segment, address: CODE 000019EE - 000019FB (0xe bytes), align: 1
  Segment part 6.             Intra module refs:   ?SL2F_L04
           LOCAL                   ADDRESS         
           =====                   =======         
           ?SL2F_2                 000019EE 
    -------------------------------------------------------------------------
CODE
  Segment part 7. NOT NEEDED.
           ENTRY                   ADDRESS         REF BY
           =====                   =======         ======
           ?UL2F_L04               
    -------------------------------------------------------------------------
CODE
  Relative segment, address: CODE 000019FC - 00001A27 (0x2c bytes), align: 1
  Segment part 8.             Intra module refs:   ?F_ADD_L04
                                                   ?F_DIV_L04
                                                   ?F_MUL_L04
                                                   ?TEST_Q_L04
           ENTRY                   ADDRESS         REF BY
           =====                   =======         ======
           ?TEST_P_L04             000019FC 
    -------------------------------------------------------------------------
CODE
  Relative segment, address: CODE 00001A28 - 00001A45 (0x1e bytes), align: 1
  Segment part 9.             Intra module refs:   ?F_ADD_L04
                                                   ?F_DIV_L04
                                                   ?F_MUL_L04
                                                   Segment part 16
           ENTRY                   ADDRESS         REF BY
           =====                   =======         ======
           ?TEST_Q_L04             00001A28 
    -------------------------------------------------------------------------
CODE
  Relative segment, address: CODE 00001A46 - 00001AE3 (0x9e bytes), align: 1
  Segment part 10.            Intra module refs:   Segment part 16
           ENTRY                   ADDRESS         REF BY
           =====                   =======         ======
           ?F_ADD_L04              00001A66 
    -------------------------------------------------------------------------
CODE
  Segment part 11. NOT NEEDED.
           ENTRY                   ADDRESS         REF BY
           =====                   =======         ======
           ?F_SUB_L04              
    -------------------------------------------------------------------------
CODE
  Relative segment, address: CODE 00001AE4 - 00001AE9 (0x6 bytes), align: 1
  Segment part 12.            Intra module refs:   ?F2SL_L04
                                                   ?F_ADD_L04
                                                   ?F_DIV_L04
                                                   ?F_MUL_L04
           ENTRY                   ADDRESS         REF BY
           =====                   =======         ======
           ?F_ZERO_L04             00001AE4 
    -------------------------------------------------------------------------
CODE
  Relative segment, address: CODE 00001AEA - 00001AEF (0x6 bytes), align: 1
  Segment part 13.            Intra module refs:   ?F_INFINITE_L04
                                                   ?F_NAN_L04
                                                   ?F_ZERO_L04
           LOCAL                   ADDRESS         
           =====                   =======         
           PX                      00001AEA 
    -------------------------------------------------------------------------
CODE
  Relative segment, address: CODE 00001AF0 - 00001AF7 (0x8 bytes), align: 1
  Segment part 14.            Intra module refs:   ?F_DIV_L04
                                                   ?F_MUL_L04
                                                   Segment part 4
           ENTRY                   ADDRESS         REF BY
           =====                   =======         ======
           ?F_INFINITE_L04         00001AF0 
    -------------------------------------------------------------------------
CODE
  Relative segment, address: CODE 00001AF8 - 00001AFD (0x6 bytes), align: 1
  Segment part 15.            Intra module refs:   ?F_ADD_L04
                                                   ?F_DIV_L04
                                                   ?F_MUL_L04
                                                   Segment part 16
           ENTRY                   ADDRESS         REF BY
           =====                   =======         ======
           ?F_NAN_L04              00001AF8 
    -------------------------------------------------------------------------
CODE
  Relative segment, address: CODE 00001AFE - 00001B17 (0x1a bytes), align: 1
  Segment part 16.            Intra module refs:   ?F_MUL_L04
    -------------------------------------------------------------------------
CODE
  Relative segment, address: CODE 00001B18 - 00001BE1 (0xca bytes), align: 1
  Segment part 17.
           ENTRY                   ADDRESS         REF BY
           =====                   =======         ======
           ?F_MUL_L04              00001B18        Twi_Adc_Cal_Real_Value (ps-33d)
    -------------------------------------------------------------------------
CODE
  Segment part 18. NOT NEEDED.
           ENTRY                   ADDRESS         REF BY
           =====                   =======         ======
           ?F_CMP_EQ_L04           
    -------------------------------------------------------------------------
CODE
  Segment part 19. NOT NEEDED.
           ENTRY                   ADDRESS         REF BY
           =====                   =======         ======
           ?F_CMP_LT_L04           
    -------------------------------------------------------------------------
CODE
  Segment part 20. NOT NEEDED.
    -------------------------------------------------------------------------
CODE
  Segment part 21. NOT NEEDED.
           ENTRY                   ADDRESS         REF BY
           =====                   =======         ======
           ?F_CMP_GE_L04           
    -------------------------------------------------------------------------
CODE
  Relative segment, address: CODE 00001BE2 - 00001CE5 (0x104 bytes), align: 1
  Segment part 22.
           ENTRY                   ADDRESS         REF BY
           =====                   =======         ======
           ?F_DIV_L04              00001C02        Twi_Adc_Push_Coef (ps-33d)
    -------------------------------------------------------------------------
CODE
  Segment part 23. NOT NEEDED.
           ENTRY                   ADDRESS         REF BY
           =====                   =======         ======
           ?F2UL_L04               
    -------------------------------------------------------------------------
CODE
  Relative segment, address: CODE 00001CE6 - 00001CF5 (0x10 bytes), align: 1
  Segment part 24.
           ENTRY                   ADDRESS         REF BY
           =====                   =======         ======
           ?F2SL_L04               00001CE6        Twi_Adc_Cal_Real_Value (ps-33d)
    -------------------------------------------------------------------------
CODE
  Relative segment, address: CODE 00001CF6 - 00001D23 (0x2e bytes), align: 1
  Segment part 25.            Intra module refs:   ?F2SL_L04
           LOCAL                   ADDRESS         
           =====                   =======         
           ?SKIP8                  00001CF6 

    -------------------------------------------------------------------------
  LIBRARY MODULE, NAME : ?xV_SWITCH_L06

  SEGMENTS IN THE MODULE
  ======================
CODE
  Segment part 0. NOT NEEDED.
    -------------------------------------------------------------------------
CODE
  Relative segment, address: CODE 00001D24 - 00001D25 (0x2 bytes), align: 1
  Segment part 1.             Intra module refs:   ?SV_SWITCH_L06
           LOCAL                   ADDRESS         
           =====                   =======         
           GET_INFO_S              00001D24 
    -------------------------------------------------------------------------
CODE
  Relative segment, address: CODE 00001D26 - 00001D31 (0xc bytes), align: 1
  Segment part 2.             Intra module refs:   GET_INFO_S
           LOCAL                   ADDRESS         
           =====                   =======         
           GET_INFO_C              00001D26 
    -------------------------------------------------------------------------
CODE
  Segment part 3. NOT NEEDED.
           ENTRY                   ADDRESS         REF BY
           =====                   =======         ======
           ?CV_SWITCH_L06          
    -------------------------------------------------------------------------
CODE
  Relative segment, address: CODE 00001D32 - 00001D37 (0x6 bytes), align: 1
  Segment part 4.
           ENTRY                   ADDRESS         REF BY
           =====                   =======         ======
           ?SV_SWITCH_L06          00001D32        Fnd_Put_Data_Timer (fnd_display)
    -------------------------------------------------------------------------
CODE
  Relative segment, address: CODE 00001D38 - 00001D3D (0x6 bytes), align: 1
  Segment part 5.             Intra module refs:   ?SV_SWITCH_L06
           LOCAL                   ADDRESS         
           =====                   =======         
           P_0_S                   00001D38 
    -------------------------------------------------------------------------
CODE
  Segment part 6. NOT NEEDED.
           ENTRY                   ADDRESS         REF BY
           =====                   =======         ======
           ?LV_SWITCH_L06          
    -------------------------------------------------------------------------
CODE
  Relative segment, address: CODE 00001D3E - 00001DA9 (0x6c bytes), align: 1
  Segment part 7.             Intra module refs:   P_0_S
           LOCAL                   ADDRESS         
           =====                   =======         
           CHECK_LOW_LIMIT         00001D3E 

    -------------------------------------------------------------------------
  LIBRARY MODULE, NAME : ?PROLOGUE_L09

  SEGMENTS IN THE MODULE
  ======================
CODE
  Segment part 0. NOT NEEDED.
           ENTRY                   ADDRESS         REF BY
           =====                   =======         ======
           ?PROLOGUE16_L09         
    -------------------------------------------------------------------------
CODE
  Segment part 1. NOT NEEDED.
           ENTRY                   ADDRESS         REF BY
           =====                   =======         ======
           ?PROLOGUE15_L09         
    -------------------------------------------------------------------------
CODE
  Segment part 2. NOT NEEDED.
           ENTRY                   ADDRESS         REF BY
           =====                   =======         ======
           ?PROLOGUE14_L09         
    -------------------------------------------------------------------------
CODE
  Segment part 3. NOT NEEDED.
           ENTRY                   ADDRESS         REF BY
           =====                   =======         ======
           ?PROLOGUE13_L09         
    -------------------------------------------------------------------------
CODE
  Segment part 4. NOT NEEDED.
           ENTRY                   ADDRESS         REF BY
           =====                   =======         ======
           ?PROLOGUE12_L09         
    -------------------------------------------------------------------------
CODE
  Segment part 5. NOT NEEDED.
           ENTRY                   ADDRESS         REF BY
           =====                   =======         ======
           ?PROLOGUE11_L09         
    -------------------------------------------------------------------------
CODE
  Segment part 6. NOT NEEDED.
           ENTRY                   ADDRESS         REF BY
           =====                   =======         ======
           ?PROLOGUE10_L09         
    -------------------------------------------------------------------------
CODE
  Segment part 7. NOT NEEDED.
           ENTRY                   ADDRESS         REF BY
           =====                   =======         ======
           ?PROLOGUE9_L09          
    -------------------------------------------------------------------------
CODE
  Segment part 8. NOT NEEDED.
           ENTRY                   ADDRESS         REF BY
           =====                   =======         ======
           ?PROLOGUE8_L09          
    -------------------------------------------------------------------------
CODE
  Segment part 9. NOT NEEDED.
           ENTRY                   ADDRESS         REF BY
           =====                   =======         ======
           ?PROLOGUE7_L09          
    -------------------------------------------------------------------------
CODE
  Segment part 10. NOT NEEDED.
           ENTRY                   ADDRESS         REF BY
           =====                   =======         ======
           ?PROLOGUE6_L09          
    -------------------------------------------------------------------------
CODE
  Segment part 11. NOT NEEDED.
           ENTRY                   ADDRESS         REF BY
           =====                   =======         ======
           ?PROLOGUE5_L09          
    -------------------------------------------------------------------------
CODE
  Relative segment, address: CODE 00001DAA - 00001DAB (0x2 bytes), align: 1
  Segment part 12.
           ENTRY                   ADDRESS         REF BY
           =====                   =======         ======
           ?PROLOGUE4_L09          00001DAA        Twi_Adc_Push_Coef (ps-33d)
                                                   Usart_Timer (usart)
    -------------------------------------------------------------------------
CODE
  Relative segment, address: CODE 00001DAC - 00001DAD (0x2 bytes), align: 1
  Segment part 13.            Intra module refs:   ?PROLOGUE4_L09
           ENTRY                   ADDRESS         REF BY
           =====                   =======         ======
           ?PROLOGUE3_L09          00001DAC 
    -------------------------------------------------------------------------
CODE
  Relative segment, address: CODE 00001DAE - 00001DAF (0x2 bytes), align: 1
  Segment part 14.            Intra module refs:   ?PROLOGUE3_L09
           ENTRY                   ADDRESS         REF BY
           =====                   =======         ======
           ?PROLOGUE2_L09          00001DAE 
    -------------------------------------------------------------------------
CODE
  Relative segment, address: CODE 00001DB0 - 00001DB1 (0x2 bytes), align: 1
  Segment part 15.            Intra module refs:   ?PROLOGUE2_L09
           ENTRY                   ADDRESS         REF BY
           =====                   =======         ======
           ?PROLOGUE1_L09          00001DB0 
    -------------------------------------------------------------------------
CODE
  Relative segment, address: CODE 00001DB2 - 00001DB3 (0x2 bytes), align: 1
  Segment part 16.            Intra module refs:   ?PROLOGUE1_L09

    -------------------------------------------------------------------------
  LIBRARY MODULE, NAME : ?EPILOGUE_B_L09

  SEGMENTS IN THE MODULE
  ======================
CODE
  Segment part 0. NOT NEEDED.
           ENTRY                   ADDRESS         REF BY
           =====                   =======         ======
           ?EPILOGUE_B16_L09       
    -------------------------------------------------------------------------
CODE
  Segment part 1. NOT NEEDED.
           ENTRY                   ADDRESS         REF BY
           =====                   =======         ======
           ?EPILOGUE_B15_L09       
    -------------------------------------------------------------------------
CODE
  Segment part 2. NOT NEEDED.
           ENTRY                   ADDRESS         REF BY
           =====                   =======         ======
           ?EPILOGUE_B14_L09       
    -------------------------------------------------------------------------
CODE
  Segment part 3. NOT NEEDED.
           ENTRY                   ADDRESS         REF BY
           =====                   =======         ======
           ?EPILOGUE_B13_L09       
    -------------------------------------------------------------------------
CODE
  Segment part 4. NOT NEEDED.
           ENTRY                   ADDRESS         REF BY
           =====                   =======         ======
           ?EPILOGUE_B12_L09       
    -------------------------------------------------------------------------
CODE
  Segment part 5. NOT NEEDED.
           ENTRY                   ADDRESS         REF BY
           =====                   =======         ======
           ?EPILOGUE_B11_L09       
    -------------------------------------------------------------------------
CODE
  Segment part 6. NOT NEEDED.
           ENTRY                   ADDRESS         REF BY
           =====                   =======         ======
           ?EPILOGUE_B10_L09       
    -------------------------------------------------------------------------
CODE
  Segment part 7. NOT NEEDED.
           ENTRY                   ADDRESS         REF BY
           =====                   =======         ======
           ?EPILOGUE_B9_L09        
    -------------------------------------------------------------------------
CODE
  Segment part 8. NOT NEEDED.
           ENTRY                   ADDRESS         REF BY
           =====                   =======         ======
           ?EPILOGUE_B8_L09        
    -------------------------------------------------------------------------
CODE
  Segment part 9. NOT NEEDED.
           ENTRY                   ADDRESS         REF BY
           =====                   =======         ======
           ?EPILOGUE_B7_L09        
    -------------------------------------------------------------------------
CODE
  Segment part 10. NOT NEEDED.
           ENTRY                   ADDRESS         REF BY
           =====                   =======         ======
           ?EPILOGUE_B6_L09        
    -------------------------------------------------------------------------
CODE
  Segment part 11. NOT NEEDED.
           ENTRY                   ADDRESS         REF BY
           =====                   =======         ======
           ?EPILOGUE_B5_L09        
    -------------------------------------------------------------------------
CODE
  Relative segment, address: CODE 00001DB4 - 00001DB5 (0x2 bytes), align: 1
  Segment part 12.
           ENTRY                   ADDRESS         REF BY
           =====                   =======         ======
           ?EPILOGUE_B4_L09        00001DB4        Twi_Adc_Push_Coef (ps-33d)
                                                   Usart_Timer (usart)
    -------------------------------------------------------------------------
CODE
  Relative segment, address: CODE 00001DB6 - 00001DB7 (0x2 bytes), align: 1
  Segment part 13.            Intra module refs:   ?EPILOGUE_B4_L09
           ENTRY                   ADDRESS         REF BY
           =====                   =======         ======
           ?EPILOGUE_B3_L09        00001DB6 
    -------------------------------------------------------------------------
CODE
  Relative segment, address: CODE 00001DB8 - 00001DB9 (0x2 bytes), align: 1
  Segment part 14.            Intra module refs:   ?EPILOGUE_B3_L09
           ENTRY                   ADDRESS         REF BY
           =====                   =======         ======
           ?EPILOGUE_B2_L09        00001DB8 
    -------------------------------------------------------------------------
CODE
  Relative segment, address: CODE 00001DBA - 00001DBB (0x2 bytes), align: 1
  Segment part 15.            Intra module refs:   ?EPILOGUE_B2_L09
           ENTRY                   ADDRESS         REF BY
           =====                   =======         ======
           ?EPILOGUE_B1_L09        00001DBA 
    -------------------------------------------------------------------------
CODE
  Relative segment, address: CODE 00001DBC - 00001DC5 (0xa bytes), align: 1
  Segment part 16.            Intra module refs:   ?EPILOGUE_B1_L09
           ENTRY                   ADDRESS         REF BY
           =====                   =======         ======
           ?EPILOGUE_B0_L09        00001DBC 

    -------------------------------------------------------------------------
  LIBRARY MODULE, NAME : ?REGISTER_CGREGR4_L10

  SEGMENTS IN THE MODULE
  ======================
CODE
  Segment part 0. NOT NEEDED.
           ENTRY                   ADDRESS         REF BY
           =====                   =======         ======
           ?Register_R4_is_cg_reg
                                   

    -------------------------------------------------------------------------
  LIBRARY MODULE, NAME : ?REGISTER_CGREGR5_L10

  SEGMENTS IN THE MODULE
  ======================
CODE
  Segment part 0. NOT NEEDED.
           ENTRY                   ADDRESS         REF BY
           =====                   =======         ======
           ?Register_R5_is_cg_reg
                                   

    -------------------------------------------------------------------------
  LIBRARY MODULE, NAME : ?REGISTER_CGREGR6_L10

  SEGMENTS IN THE MODULE
  ======================
CODE
  Segment part 0. NOT NEEDED.
           ENTRY                   ADDRESS         REF BY
           =====                   =======         ======
           ?Register_R6_is_cg_reg
                                   

    -------------------------------------------------------------------------
  LIBRARY MODULE, NAME : ?REGISTER_CGREGR7_L10

  SEGMENTS IN THE MODULE
  ======================
CODE
  Segment part 0. NOT NEEDED.
           ENTRY                   ADDRESS         REF BY
           =====                   =======         ======
           ?Register_R7_is_cg_reg
                                   

    -------------------------------------------------------------------------
  LIBRARY MODULE, NAME : ?REGISTER_CGREGR8_L10

  SEGMENTS IN THE MODULE
  ======================
CODE
  Segment part 0. NOT NEEDED.
           ENTRY                   ADDRESS         REF BY
           =====                   =======         ======
           ?Register_R8_is_cg_reg
                                   

    -------------------------------------------------------------------------
  LIBRARY MODULE, NAME : ?REGISTER_CGREGR9_L10

  SEGMENTS IN THE MODULE
  ======================
CODE
  Segment part 0. NOT NEEDED.
           ENTRY                   ADDRESS         REF BY
           =====                   =======         ======
           ?Register_R9_is_cg_reg
                                   

    -------------------------------------------------------------------------
  LIBRARY MODULE, NAME : ?REGISTER_CGREGR10_L10

  SEGMENTS IN THE MODULE
  ======================
CODE
  Segment part 0. NOT NEEDED.
           ENTRY                   ADDRESS         REF BY
           =====                   =======         ======
           ?Register_R10_is_cg_reg
                                   

    -------------------------------------------------------------------------
  LIBRARY MODULE, NAME : ?REGISTER_CGREGR11_L10

  SEGMENTS IN THE MODULE
  ======================
CODE
  Segment part 0. NOT NEEDED.
           ENTRY                   ADDRESS         REF BY
           =====                   =======         ======
           ?Register_R11_is_cg_reg
                                   

    -------------------------------------------------------------------------
  LIBRARY MODULE, NAME : ?low_level_init

  SEGMENTS IN THE MODULE
  ======================
CODE
  Relative segment, address: CODE 00001DC6 - 00001DC9 (0x4 bytes), align: 1
  Segment part 3.
           ENTRY                   ADDRESS         REF BY
           =====                   =======         ======
           __low_level_init        00001DC6        ?call_low_level_init (?C_STARTUP)
    -------------------------------------------------------------------------
CSTACK
  Segment part 1. NOT NEEDED.
    -------------------------------------------------------------------------
RSTACK
  Segment part 2. NOT NEEDED.

    -------------------------------------------------------------------------
  LIBRARY MODULE, NAME : ?segment_init

  SEGMENTS IN THE MODULE
  ======================
CODE
  Relative segment, address: CODE 00001DCA - 00001DD5 (0xc bytes), align: 1
  Segment part 3.             Intra module refs:   __segment_init
           LOCAL                   ADDRESS         
           =====                   =======         
           __memclr                00001DCA 
    -------------------------------------------------------------------------
CODE
  Relative segment, address: CODE 00001DD6 - 00001DE1 (0xc bytes), align: 1
  Segment part 4.             Intra module refs:   __segment_init
           LOCAL                   ADDRESS         
           =====                   =======         
           __flashcpy              00001DD6 
    -------------------------------------------------------------------------
CODE
  Relative segment, address: CODE 00001DE2 - 00001E15 (0x34 bytes), align: 1
  Segment part 5.
           ENTRY                   ADDRESS         REF BY
           =====                   =======         ======
           __segment_init          00001DE2        ?need_segment_init (?C_STARTUP)
               calls direct
    -------------------------------------------------------------------------
CSTACK
  Segment part 1. NOT NEEDED.
    -------------------------------------------------------------------------
RSTACK
  Segment part 2. NOT NEEDED.
    -------------------------------------------------------------------------
INITTAB
  Segment part 6. NOT NEEDED.

    -------------------------------------------------------------------------
  LIBRARY MODULE, NAME : ?xcloseall

  SEGMENTS IN THE MODULE
  ======================
CODE
  Segment part 3. NOT NEEDED.
           ENTRY                   ADDRESS         REF BY
           =====                   =======         ======
           _Close_all              
               calls direct
    -------------------------------------------------------------------------
CSTACK
  Segment part 1. NOT NEEDED.
    -------------------------------------------------------------------------
RSTACK
  Segment part 2. NOT NEEDED.

    -------------------------------------------------------------------------
  LIBRARY MODULE, NAME : ?xgetmemchunk

  SEGMENTS IN THE MODULE
  ======================
CODE
  Segment part 5. NOT NEEDED.
           ENTRY                   ADDRESS         REF BY
           =====                   =======         ======
           __near_GetMemChunk      
    -------------------------------------------------------------------------
NEAR_Z
  Segment part 3. NOT NEEDED.
    -------------------------------------------------------------------------
CSTACK
  Segment part 1. NOT NEEDED.
    -------------------------------------------------------------------------
RSTACK
  Segment part 2. NOT NEEDED.
    -------------------------------------------------------------------------
INITTAB
  Segment part 4. TENTATIVE. Used definition from adc
           ENTRY                   ADDRESS         REF BY
           =====                   =======         ======
           ?<Segment init: NEAR_Z>
                                   
    -------------------------------------------------------------------------
NEAR_HEAP
  Segment part 6. NOT NEEDED.

    -------------------------------------------------------------------------
  LIBRARY MODULE, NAME : ?__exit

  SEGMENTS IN THE MODULE
  ======================
CODE
  Relative segment, address: CODE 00001E16 - 00001E17 (0x2 bytes), align: 1
  Segment part 3.
           ENTRY                   ADDRESS         REF BY
           =====                   =======         ======
           __exit                  00001E16        Segment part 5 (?_exit)
    -------------------------------------------------------------------------
CSTACK
  Segment part 1. NOT NEEDED.
    -------------------------------------------------------------------------
RSTACK
  Segment part 2. NOT NEEDED.

    -------------------------------------------------------------------------
  LIBRARY MODULE, NAME : ?xxmemxfree

  SEGMENTS IN THE MODULE
  ======================
CODE
  Segment part 3. NOT NEEDED.
           ENTRY                   ADDRESS         REF BY
           =====                   =======         ======
           free                    
    -------------------------------------------------------------------------
CODE
  Segment part 4. NOT NEEDED.
    -------------------------------------------------------------------------
CODE
  Segment part 5. NOT NEEDED.
           ENTRY                   ADDRESS         REF BY
           =====                   =======         ======
           __near_free             
               calls direct
    -------------------------------------------------------------------------
CSTACK
  Segment part 1. NOT NEEDED.
    -------------------------------------------------------------------------
RSTACK
  Segment part 2. NOT NEEDED.

    -------------------------------------------------------------------------
  LIBRARY MODULE, NAME : ?xxmemxmalloc

  SEGMENTS IN THE MODULE
  ======================
NEAR_Z
  Segment part 3. NOT NEEDED.
           ENTRY                   ADDRESS         REF BY
           =====                   =======         ======
           __near_Aldata           
    -------------------------------------------------------------------------
CODE
  Segment part 5. NOT NEEDED.
           LOCAL                   ADDRESS         
           =====                   =======         
           __near_findmem          
               calls direct
    -------------------------------------------------------------------------
CODE
  Segment part 6. NOT NEEDED.
    -------------------------------------------------------------------------
CODE
  Segment part 7. NOT NEEDED.
    -------------------------------------------------------------------------
CODE
  Segment part 8. NOT NEEDED.
    -------------------------------------------------------------------------
CODE
  Segment part 9. NOT NEEDED.
    -------------------------------------------------------------------------
CODE
  Segment part 10. NOT NEEDED.
           ENTRY                   ADDRESS         REF BY
           =====                   =======         ======
           malloc                  
               calls direct
    -------------------------------------------------------------------------
CODE
  Segment part 11. NOT NEEDED.
           ENTRY                   ADDRESS         REF BY
           =====                   =======         ======
           __near_malloc           
               calls direct
    -------------------------------------------------------------------------
CSTACK
  Segment part 1. NOT NEEDED.
    -------------------------------------------------------------------------
RSTACK
  Segment part 2. NOT NEEDED.
    -------------------------------------------------------------------------
INITTAB
  Segment part 4. TENTATIVE. Used definition from adc
           ENTRY                   ADDRESS         REF BY
           =====                   =======         ======
           ?<Segment init: NEAR_Z>
                                   

    *************************************************************************

  DEFINED ABSOLUTE ENTRIES
  PROGRAM MODULE, NAME : ?FILLER_BYTES

  SEGMENTS IN THE MODULE
  ======================
INTVEC
  Common segment, address: CODE 00000000 - 00000063 (0x64 bytes), align: 0
  Segment part 1.
    -------------------------------------------------------------------------
?FILL1
  Relative segment, address: CODE 00000064 - 00000067 (0x4 bytes), align: 0
  Segment part 0.




                ****************************************
                *                                      *
                *            MODULE SUMMARY            *
                *                                      *
                ****************************************

Module                  CODE      DATA      XDATA
------                  ----      ----      -----
                       (Rel)  (Rel)  (Abs)  (Rel)
?C_STARTUP                36
?EEPROM_16                62
?EPILOGUE_B_L09           18
?FILLER_BYTES              4
  + common               100
?FLOATS_L04              940
?PROLOGUE_L09             10
?RESET
  + common                 4
?SL_DIVMOD_L03            16
?SS_DIVMOD_L02            48
?UL_SHR_L03               14
?US_DIVMOD_L02            38
?__exit                    2
?_exit                     4
?abs                      12
?exit                      4
?low_level_init            4
?segment_init             76
?xV_SWITCH_L06           134
adc                      482     20      4      2
  + shared                 6
  + common                88
alarm                    502      2
  + shared                               4
avr_gpio_driver
  + shared                               1
avr_twi_master_driver    383     20      4
  + shared                 6
  + common               100
fnd_display            1 141     26
main                      60
module_initialize        254      2      8
  + common                36
motor                  1 728     19
ps-33d                   608     55
switch                   154      4
system_mode              540     15
usart                    378     50      6
  + common                84
N/A (command line)              256
N/A (alignment)
----------             -----    ---     --      -
Total:                 7 664    469     27      2
  + common               100


                ****************************************
                *                                      *
                *      SEGMENTS IN ADDRESS ORDER       *
                *                                      *
                ****************************************


SEGMENT              SPACE    START ADDRESS   END ADDRESS     SIZE  TYPE  ALIGN
=======              =====    =============   ===========     ====  ====  =====
INTVEC               CODE          00000000 - 00000063          64   com    1
?FILL1               CODE          00000064 - 00000067           4   rel    0
SWITCH               CODE          00000068 - 0000007B          14   rel    1
CODE                 CODE          0000007C - 00001E17        1D9C   rel    1
INITTAB              CODE          00001E18 - 00001E23           C   rel    0
NEAR_ID              CODE          00001E24 - 00001E53          30   rel    0
ABSOLUTE             DATA               0000001F                     rel    0
                     DATA               00000020                   
                     DATA               00000021                   
                     DATA               00000022                   
                     DATA          00000023 - 00000025           3 
                     DATA          00000027 - 0000002B           5 
                     DATA          00000070 - 00000070           1 
                     DATA          00000078 - 0000007A           3 
                     DATA          0000007C - 0000007C           1 
                     DATA          000000B0 - 000000B1           2 
                     DATA          000000B3 - 000000B4           2 
                     DATA          000000B8 - 000000B9           2 
                     DATA          000000BB - 000000BC           2 
                     DATA          000000C0 - 000000C2           3 
                     DATA          000000C4 - 000000C6           3 
CSTACK               DATA          00000100 - 0000017F          80   dse    0
RSTACK               DATA          00000180 - 000001FF          80   dse    0
NEAR_I               DATA          00000200 - 0000022F          30   rel    0
NEAR_Z               DATA          00000230 - 000002D4          A5   rel    0
EEPROM_I             XDATA              00000000                     dse    0
EEPROM_N             XDATA         00000000 - 00000001           2   rel    0

                ****************************************
                *                                      *
                *        END OF CROSS REFERENCE        *
                *                                      *
                ****************************************

 7 760 bytes of CODE  memory (+             4 range fill )
   469 bytes of DATA  memory (+ 27 absolute )
     2 bytes of XDATA memory

Errors: none
Warnings: none

